(dp0
S'mhcnuggets_mhcI'
p1
(lp2
S'Eqca-N06:02'
p3
aS'HLA-B15:01'
p4
aS'HLA-DQA106:01-DQB104:02'
p5
aS'HLA-B44:05'
p6
aS'HLA-B15:03'
p7
aS'HLA-B44:01'
p8
aS'HLA-B12:01'
p9
aS'HLA-B44:03'
p10
aS'BoLA-641:01'
p11
aS'HLA-C03:03'
p12
aS'HLA-DRB107:01'
p13
aS'BoLA-DRB311:01'
p14
aS'HLA-A11:02'
p15
aS'HLA-C03:04'
p16
aS'HLA-DRA01:01-DRB114:54'
p17
aS'HLA-A69:01'
p18
aS'HLA-DRB115:02'
p19
aS'HLA-DRA01:01-DRB301:01'
p20
aS'Mamu-B52:01'
p21
aS'HLA-B27:06'
p22
aS'HLA-B27:05'
p23
aS'HLA-B27:04'
p24
aS'HLA-B27:03'
p25
aS'HLA-B27:02'
p26
aS'HLA-B27:01'
p27
aS'HLA-B15:17'
p28
aS'HLA-B15:16'
p29
aS'HLA-B15:10'
p30
aS'HLA-B27:09'
p31
aS'HLA-DRA01:01-DRB104:04'
p32
aS'HLA-DRB303:01'
p33
aS'HLA-DRA01:01-DRB115:01'
p34
aS'H-2-IAu'
p35
aS'HLA-DQA104:01-DQB104:02'
p36
aS'HLA-DPA101:03-DPB103:01'
p37
aS'HLA-B42:02'
p38
aS'HLA-DPB105:01'
p39
aS'HLA-DRB302:02'
p40
aS'HLA-DRA01:01-DRB101:01'
p41
aS'HLA-B38:01'
p42
aS'HLA-C15:02'
p43
aS'HLA-DRB109:01'
p44
aS'H-2-IEd'
p45
aS'HLA-DQA102:01-DQB104:02'
p46
aS'H-2-IEb'
p47
aS'HLA-DQA101:02-DQB105:01'
p48
aS'HLA-B40:01'
p49
aS'Patr-B01:01'
p50
aS'HLA-B42:01'
p51
aS'H-2-IEk'
p52
aS'HLA-B40:02'
p53
aS'HLA-B45:06'
p54
aS'Patr-A01:01'
p55
aS'HLA-A26:01'
p56
aS'HLA-C12:03'
p57
aS'H-2-IEr'
p58
aS'H-2-IEp'
p59
aS'HLA-A32:01'
p60
aS'HLA-DRB110:01'
p61
aS'HLA-A26:03'
p62
aS'Patr-B17:01'
p63
aS'HLA-A32:07'
p64
aS'HLA-DRB111:01'
p65
aS'HLA-A26:02'
p66
aS'HLA-DRB116:02'
p67
aS'HLA-DRA01:01-DRB501:01'
p68
aS'HLA-A68:23'
p69
aS'Patr-A04:01'
p70
aS'HLA-BF01:0201'
p71
aS'HLA-DPB109:01'
p72
aS'HLA-B73:01'
p73
aS'HLA-DRB108:01'
p74
aS'BoLA-613:01'
p75
aS'HLA-DQB105:01'
p76
aS'HLA-DQB105:02'
p77
aS'HLA-DQB105:03'
p78
aS'SLA-204:01'
p79
aS'HLA-DQA103:02-DQB103:01'
p80
aS'BoLA-208:01'
p81
aS'HLA-C08:02'
p82
aS'HLA-C08:01'
p83
aS'HLA-BF02:0401'
p84
aS'Mamu-A07:01'
p85
aS'HLA-A11:01'
p86
aS'Mamu-B39:01'
p87
aS'HLA-B18:01'
p88
aS'HLA-DQA102:01-DQB103:01'
p89
aS'HLA-A02:11'
p90
aS'HLA-A02:12'
p91
aS'HLA-A01:01'
p92
aS'HLA-A02:14'
p93
aS'HLA-A02:16'
p94
aS'HLA-A02:17'
p95
aS'HLA-B14:01'
p96
aS'HLA-A02:19'
p97
aS'HLA-A32:15'
p98
aS'HLA-B14:02'
p99
aS'HLA-DRB301:01'
p100
aS'HLA-A74:01'
p101
aS'HLA-A23:01'
p102
aS'HLA-A80:01'
p103
aS'Patr-B09:01'
p104
aS'Gogo-B01:01'
p105
aS'BoLA-DRB312:01'
p106
aS'HLA-DRB113:04'
p107
aS'HLA-DQA103:02-DQB104:01'
p108
aS'HLA-DQB102:01'
p109
aS'HLA-DRB113:03'
p110
aS'HLA-DQB102:02'
p111
aS'HLA-DPA102:01-DPB105:01'
p112
aS'Mamu-B65:02'
p113
aS'HLA-DPA101:03-DPB104:01'
p114
aS'HLA-DPA101:03-DPB104:02'
p115
aS'HLA-DRB101:01'
p116
aS'HLA-B48:01'
p117
aS'HLA-DRB101:03'
p118
aS'HLA-BF02:1201'
p119
aS'HLA-DQA105:01-DQB103:02'
p120
aS'HLA-DQA105:01-DQB103:03'
p121
aS'HLA-DQA105:01-DQB103:01'
p122
aS'HLA-DQA103:01-DQB103:01'
p123
aS'HLA-B45:01'
p124
aS'Mamu-A07:0103'
p125
aS'HLA-B53:01'
p126
aS'HLA-DRB103:05'
p127
aS'HLA-DRA01:01-DRB111:01'
p128
aS'HLA-DRB103:03'
p129
aS'HLA-B57:01'
p130
aS'HLA-DRB103:01'
p131
aS'HLA-B57:03'
p132
aS'HLA-DRB111:04'
p133
aS'HLA-A02:06'
p134
aS'HLA-A02:05'
p135
aS'HLA-A02:04'
p136
aS'HLA-A02:03'
p137
aS'HLA-B57:02'
p138
aS'HLA-A02:01'
p139
aS'HLA-DRB111:03'
p140
aS'HLA-B35:08'
p141
aS'HLA-DQB104:02'
p142
aS'HLA-B54:01'
p143
aS'HLA-A02:09'
p144
aS'HLA-A02:08'
p145
aS'HLA-A02:07'
p146
aS'HLA-A68:01'
p147
aS'HLA-B46:01'
p148
aS'HLA-DPB102:01'
p149
aS'HLA-B35:01'
p150
aS'HLA-DPB114:01'
p151
aS'HLA-B52:01'
p152
aS'HLA-A29:01'
p153
aS'HLA-A29:02'
p154
aS'HLA-DRB104:11'
p155
aS'HLA-B44:02'
p156
aS'H-2-Kk'
p157
aS'HLA-B35:03'
p158
aS'Mamu-DRB104:06'
p159
aS'Mamu-B10:01'
p160
aS'H-2-Kb'
p161
aS'HLA-DRA01:01-DRB104:01'
p162
aS'HLA-A02:02'
p163
aS'HLA-DRA01:01-DRB401:03'
p164
aS'Mamu-A02:01'
p165
aS'HLA-DRB111:02'
p166
aS'HLA-A66:01'
p167
aS'Mamu-B01:01'
p168
aS'HLA-B08:01'
p169
aS'HLA-B08:02'
p170
aS'HLA-B08:03'
p171
aS'HLA-DQB103:02'
p172
aS'HLA-C05:01'
p173
aS'Eqca-101:01'
p174
aS'Mamu-A22:01'
p175
aS'HLA-DPB101:01'
p176
aS'HLA-A24:02'
p177
aS'HLA-A25:01'
p178
aS'HLA-DPA102:02-DPB105:01'
p179
aS'BoLA-A11:01'
p180
aS'HLA-DQA101:01-DQB105:01'
p181
aS'HLA-A33:03'
p182
aS'HLA-DPB104:01'
p183
aS'HLA-DPB104:02'
p184
aS'HLA-B07:02'
p185
aS'H-2-Dd'
p186
aS'HLA-DRB101:02'
p187
aS'Patr-A03:01'
p188
aS'Mamu-B04:01'
p189
aS'HLA-B83:01'
p190
aS'HLA-DRA01:01-DRB303:01'
p191
aS'HLA-DRB104:02'
p192
aS'HLA-DRB104:03'
p193
aS'HLA-DQA103:01-DQB102:01'
p194
aS'HLA-DRB104:01'
p195
aS'HLA-DRB104:06'
p196
aS'HLA-DRB104:07'
p197
aS'HLA-DRB104:04'
p198
aS'HLA-DRB104:05'
p199
aS'HLA-DPA103:01-DPB104:02'
p200
aS'HLA-E01:03'
p201
aS'H-2-IAk'
p202
aS'HLA-A24:03'
p203
aS'HLA-DQA101:03-DQB106:01'
p204
aS'HLA-CW04:01'
p205
aS'HLA-A68:02'
p206
aS'Mamu-DRB01'
p207
aS'HLA-DRB501:01'
p208
aS'HLA-A24:01'
p209
aS'HLA-DQA102:01-DQB103:03'
p210
aS'Mamu-B08:01'
p211
aS'Patr-B24:01'
p212
aS'HLA-DRB114:02'
p213
aS'HLA-DRB114:01'
p214
aS'HLA-DPB111:01'
p215
aS'HLA-B81:01'
p216
aS'HLA-B15:09'
p217
aS'H-2-IAs'
p218
aS'H-2-IAr'
p219
aS'H-2-IAq'
p220
aS'H-2-IAp'
p221
aS'Mamu-A26:01'
p222
aS'Mamu-B87:01'
p223
aS'HLA-DQA102:01-DQB102:01'
p224
aS'HLA-DQA102:01-DQB102:02'
p225
aS'ELA-A01:01'
p226
aS'HLA-DRA01:01-DRB109:01'
p227
aS'Mamu-A01:11'
p228
aS'HLA-BF02:2101'
p229
aS'HLA-B62:01'
p230
aS'HLA-DQA101:04-DQB105:03'
p231
aS'HLA-DRA01:01-DRB103:01'
p232
aS'HLA-A03:01'
p233
aS'HLA-A03:02'
p234
aS'Patr-A06:01'
p235
aS'HLA-DQA101:02-DQB106:02'
p236
aS'SLA-104:01'
p237
aS'HLA-B39:06'
p238
aS'HLA-DRB115:01'
p239
aS'Patr-A06:02'
p240
aS'HLA-DQA101:02-DQB106:04'
p241
aS'HLA-B51:01'
p242
aS'HLA-DRB103:02'
p243
aS'Patr-A05:01'
p244
aS'Mamu-B83:01'
p245
aS'HLA-DQA101:03-DQB106:03'
p246
aS'HLA-DRA01:01-DRB113:01'
p247
aS'H-2-Dk'
p248
aS'BoLA-DRB302:01'
p249
aS'H-2-Db'
p250
aS'HLA-A33:01'
p251
aS'HLA-DRB116:01'
p252
aS'HLA-DQB103:01'
p253
aS'HLA-DRB501:02'
p254
aS'HLA-DQA103:01-DQB104:01'
p255
aS'HLA-DRB113:02'
p256
aS'HLA-DRB108:02'
p257
aS'HLA-DRB108:03'
p258
aS'HLA-RT11:01'
p259
aS'HLA-DRB401:03'
p260
aS'HLA-B58:01'
p261
aS'HLA-B58:02'
p262
aS'BoLA-212:01'
p263
aS'__init__'
p264
aS'HLA-DQA101:02-DQB105:02'
p265
aS'HLA-B55:02'
p266
aS'HLA-B15:42'
p267
aS'HLA-DRB401:01'
p268
aS'HLA-A02:50'
p269
aS'Mamu-A01:01'
p270
aS'Mamu-A01:02'
p271
aS'HLA-B37:01'
p272
aS'Patr-A09:01'
p273
aS'HLA-DPA102:01-DPB101:01'
p274
aS'HLA-A03:19'
p275
aS'Mamu-B66:01'
p276
aS'HLA-B27:20'
p277
aS'HLA-DRB115:03'
p278
aS'HLA-SLA01'
p279
aS'Mamu-B17:04'
p280
aS'HLA-C06:02'
p281
aS'H-2-Ld'
p282
aS'HLA-DPA101:03-DPB102:01'
p283
aS'Mamu-B17:01'
p284
aS'DLA-88508:01'
p285
aS'SLA-302:02'
p286
aS'H-2-IAb'
p287
aS'HLA-DRA01:01-DRB107:01'
p288
aS'HLA-DQB106:02'
p289
aS'HLA-DQB103:19'
p290
aS'HLA-RT01:01'
p291
aS'HLA-DQA105:01-DQB102:01'
p292
aS'HLA-DQA105:01-DQB104:02'
p293
aS'HLA-DQA103:01-DQB103:02'
p294
aS'H-2-Lq'
p295
aS'HLA-B61:01'
p296
aS'HLA-A30:02'
p297
aS'Patr-A07:01'
p298
aS'HLA-A30:01'
p299
aS'Mamu-A11:01'
p300
aS'HLA-A31:01'
p301
aS'HLA-B55:01'
p302
aS'HLA-BF02:0201'
p303
aS'HLA-B07:01'
p304
aS'HLA-B40:13'
p305
aS'HLA-C04:01'
p306
aS'H-2-IAd'
p307
aS'HLA-DRA01:01-DRB108:01'
p308
aS'HLA-DPB103:01'
p309
aS'HLA-C14:02'
p310
aS'Mamu-B03:01'
p311
aS'HLA-C07:02'
p312
aS'HLA-DRA01:01-DRB302:02'
p313
aS'HLA-C07:01'
p314
aS'Mamu-A02:0102'
p315
aS'HLA-DPB120:01'
p316
aS'Patr-B13:01'
p317
aS'HLA-B15:02'
p318
aS'HLA-DQA105:05-DQB103:01'
p319
aS'H-2-Kd'
p320
aS'HLA-DQA103:03-DQB104:02'
p321
aS'HLA-B39:01'
p322
aS'HLA-DRB112:01'
p323
aS'HLA-DRB112:02'
p324
aS'HLA-DRB113:01'
p325
asS'netMHCcons1'
p326
(lp327
S'BoLA-1:00901'
p328
aS'BoLA-1:00902'
p329
aS'BoLA-1:01901'
p330
aS'BoLA-1:02001'
p331
aS'BoLA-1:02101'
p332
aS'BoLA-1:02301'
p333
aS'BoLA-1:02801'
p334
aS'BoLA-1:02901'
p335
aS'BoLA-1:03101'
p336
aS'BoLA-1:03102'
p337
aS'BoLA-1:04201'
p338
aS'BoLA-1:04901'
p339
aS'BoLA-1:06101'
p340
aS'BoLA-1:06701'
p341
aS'BoLA-1:07401'
p342
aS'BoLA-2:00501'
p343
aS'BoLA-2:00601'
p344
aS'BoLA-2:00602'
p345
aS'BoLA-2:00801'
p346
aS'BoLA-2:00802'
p347
aS'BoLA-2:01201'
p348
aS'BoLA-2:01601'
p349
aS'BoLA-2:01602'
p350
aS'BoLA-2:01801'
p351
aS'BoLA-2:01802'
p352
aS'BoLA-2:02201'
p353
aS'BoLA-2:02501'
p354
aS'BoLA-2:02601'
p355
aS'BoLA-2:02602'
p356
aS'BoLA-2:02603'
p357
aS'BoLA-2:03001'
p358
aS'BoLA-2:03202'
p359
aS'BoLA-2:04301'
p360
aS'BoLA-2:04401'
p361
aS'BoLA-2:04402'
p362
aS'BoLA-2:04501'
p363
aS'BoLA-2:04601'
p364
aS'BoLA-2:04701'
p365
aS'BoLA-2:04801'
p366
aS'BoLA-2:05401'
p367
aS'BoLA-2:05501'
p368
aS'BoLA-2:05601'
p369
aS'BoLA-2:05701'
p370
aS'BoLA-2:06001'
p371
aS'BoLA-2:06201'
p372
aS'BoLA-2:06901'
p373
aS'BoLA-2:07001'
p374
aS'BoLA-2:07101'
p375
aS'BoLA-3:00101'
p376
aS'BoLA-3:00102'
p377
aS'BoLA-3:00103'
p378
aS'BoLA-3:00201'
p379
aS'BoLA-3:00401'
p380
aS'BoLA-3:00402'
p381
aS'BoLA-3:00403'
p382
aS'BoLA-3:01001'
p383
aS'BoLA-3:01101'
p384
aS'BoLA-3:01701'
p385
aS'BoLA-3:01702'
p386
aS'BoLA-3:01703'
p387
aS'BoLA-3:02701'
p388
aS'BoLA-3:02702'
p389
aS'BoLA-3:03501'
p390
aS'BoLA-3:03601'
p391
aS'BoLA-3:03701'
p392
aS'BoLA-3:03801'
p393
aS'BoLA-3:05001'
p394
aS'BoLA-3:05002'
p395
aS'BoLA-3:05101'
p396
aS'BoLA-3:05201'
p397
aS'BoLA-3:05301'
p398
aS'BoLA-3:05801'
p399
aS'BoLA-3:05901'
p400
aS'BoLA-3:06501'
p401
aS'BoLA-3:06601'
p402
aS'BoLA-3:06602'
p403
aS'BoLA-3:06801'
p404
aS'BoLA-3:07301'
p405
aS'BoLA-4:02401'
p406
aS'BoLA-4:02402'
p407
aS'BoLA-4:06301'
p408
aS'BoLA-5:00301'
p409
aS'BoLA-5:03901'
p410
aS'BoLA-5:06401'
p411
aS'BoLA-5:07201'
p412
aS'BoLA-6:01301'
p413
aS'BoLA-6:01302'
p414
aS'BoLA-6:01401'
p415
aS'BoLA-6:01402'
p416
aS'BoLA-6:01501'
p417
aS'BoLA-6:01502'
p418
aS'BoLA-6:03401'
p419
aS'BoLA-6:04001'
p420
aS'BoLA-6:04101'
p421
aS'BoLA-AW10'
p422
aS'BoLA-D18.4'
p423
aS'BoLA-HD6'
p424
aS'BoLA-JSP.1'
p425
aS'BoLA-N:00101'
p426
aS'BoLA-N:00102'
p427
aS'BoLA-N:00103'
p428
aS'BoLA-N:00201'
p429
aS'BoLA-N:00301'
p430
aS'BoLA-N:00401'
p431
aS'BoLA-N:00402'
p432
aS'BoLA-N:00501'
p433
aS'BoLA-N:00601'
p434
aS'BoLA-N:00602'
p435
aS'BoLA-N:00801'
p436
aS'BoLA-N:00802'
p437
aS'BoLA-N:00901'
p438
aS'BoLA-N:00902'
p439
aS'BoLA-N:01001'
p440
aS'BoLA-N:01101'
p441
aS'BoLA-N:01201'
p442
aS'BoLA-N:01301'
p443
aS'BoLA-N:01302'
p444
aS'BoLA-N:01401'
p445
aS'BoLA-N:01402'
p446
aS'BoLA-N:01501'
p447
aS'BoLA-N:01502'
p448
aS'BoLA-N:01601'
p449
aS'BoLA-N:01602'
p450
aS'BoLA-N:01701'
p451
aS'BoLA-N:01702'
p452
aS'BoLA-N:01801'
p453
aS'BoLA-N:01802'
p454
aS'BoLA-N:01901'
p455
aS'BoLA-N:02001'
p456
aS'BoLA-N:02101'
p457
aS'BoLA-N:02201'
p458
aS'BoLA-N:02301'
p459
aS'BoLA-N:02401'
p460
aS'BoLA-N:02402'
p461
aS'BoLA-N:02501'
p462
aS'BoLA-N:02601'
p463
aS'BoLA-N:02602'
p464
aS'BoLA-N:02701'
p465
aS'BoLA-N:02702'
p466
aS'BoLA-N:02801'
p467
aS'BoLA-N:02901'
p468
aS'BoLA-N:03001'
p469
aS'BoLA-N:03101'
p470
aS'BoLA-N:03401'
p471
aS'BoLA-N:03501'
p472
aS'BoLA-N:03601'
p473
aS'BoLA-N:03701'
p474
aS'BoLA-N:03801'
p475
aS'BoLA-N:03901'
p476
aS'BoLA-N:04001'
p477
aS'BoLA-N:04101'
p478
aS'BoLA-N:04201'
p479
aS'BoLA-N:04301'
p480
aS'BoLA-N:04401'
p481
aS'BoLA-N:04501'
p482
aS'BoLA-N:04601'
p483
aS'BoLA-N:04701'
p484
aS'BoLA-N:04801'
p485
aS'BoLA-N:04901'
p486
aS'BoLA-N:05001'
p487
aS'BoLA-N:05101'
p488
aS'BoLA-N:05201'
p489
aS'BoLA-N:05301'
p490
aS'BoLA-N:05401'
p491
aS'BoLA-N:05501'
p492
aS'BoLA-N:05601'
p493
aS'BoLA-NC1:00101'
p494
aS'BoLA-NC1:00201'
p495
aS'BoLA-NC1:00301'
p496
aS'BoLA-NC1:00401'
p497
aS'BoLA-NC2:00101'
p498
aS'BoLA-NC2:00102'
p499
aS'BoLA-NC3:00101'
p500
aS'BoLA-NC4:00101'
p501
aS'BoLA-NC4:00201'
p502
aS'BoLA-T2C'
p503
aS'BoLA-T2c'
p504
aS'BoLA-T2a'
p505
aS'BoLA-T2b'
p506
aS'BoLA-T5'
p507
aS'BoLA-T7'
p508
aS'Gogo-B0101'
p509
aS'H-2-Db'
p510
aS'H-2-Dd'
p511
aS'H-2-Kb'
p512
aS'H-2-Kd'
p513
aS'H-2-Kk'
p514
aS'H-2-Ld'
p515
aS'HLA-A01:01'
p516
aS'HLA-A01:02'
p517
aS'HLA-A01:03'
p518
aS'HLA-A01:06'
p519
aS'HLA-A01:07'
p520
aS'HLA-A01:08'
p521
aS'HLA-A01:09'
p522
aS'HLA-A01:10'
p523
aS'HLA-A01:12'
p524
aS'HLA-A01:13'
p525
aS'HLA-A01:14'
p526
aS'HLA-A01:17'
p527
aS'HLA-A01:19'
p528
aS'HLA-A01:20'
p529
aS'HLA-A01:21'
p530
aS'HLA-A01:23'
p531
aS'HLA-A01:24'
p532
aS'HLA-A01:25'
p533
aS'HLA-A01:26'
p534
aS'HLA-A01:28'
p535
aS'HLA-A01:29'
p536
aS'HLA-A01:30'
p537
aS'HLA-A01:32'
p538
aS'HLA-A01:33'
p539
aS'HLA-A01:35'
p540
aS'HLA-A01:36'
p541
aS'HLA-A01:37'
p542
aS'HLA-A01:38'
p543
aS'HLA-A01:39'
p544
aS'HLA-A01:40'
p545
aS'HLA-A01:41'
p546
aS'HLA-A01:42'
p547
aS'HLA-A01:43'
p548
aS'HLA-A01:44'
p549
aS'HLA-A01:45'
p550
aS'HLA-A01:46'
p551
aS'HLA-A01:47'
p552
aS'HLA-A01:48'
p553
aS'HLA-A01:49'
p554
aS'HLA-A01:50'
p555
aS'HLA-A01:51'
p556
aS'HLA-A01:54'
p557
aS'HLA-A01:55'
p558
aS'HLA-A01:58'
p559
aS'HLA-A01:59'
p560
aS'HLA-A01:60'
p561
aS'HLA-A01:61'
p562
aS'HLA-A01:62'
p563
aS'HLA-A01:63'
p564
aS'HLA-A01:64'
p565
aS'HLA-A01:65'
p566
aS'HLA-A01:66'
p567
aS'HLA-A02:01'
p568
aS'HLA-A02:02'
p569
aS'HLA-A02:03'
p570
aS'HLA-A02:04'
p571
aS'HLA-A02:05'
p572
aS'HLA-A02:06'
p573
aS'HLA-A02:07'
p574
aS'HLA-A02:08'
p575
aS'HLA-A02:09'
p576
aS'HLA-A02:10'
p577
aS'HLA-A02:101'
p578
aS'HLA-A02:102'
p579
aS'HLA-A02:103'
p580
aS'HLA-A02:104'
p581
aS'HLA-A02:105'
p582
aS'HLA-A02:106'
p583
aS'HLA-A02:107'
p584
aS'HLA-A02:108'
p585
aS'HLA-A02:109'
p586
aS'HLA-A02:11'
p587
aS'HLA-A02:110'
p588
aS'HLA-A02:111'
p589
aS'HLA-A02:112'
p590
aS'HLA-A02:114'
p591
aS'HLA-A02:115'
p592
aS'HLA-A02:116'
p593
aS'HLA-A02:117'
p594
aS'HLA-A02:118'
p595
aS'HLA-A02:119'
p596
aS'HLA-A02:12'
p597
aS'HLA-A02:120'
p598
aS'HLA-A02:121'
p599
aS'HLA-A02:122'
p600
aS'HLA-A02:123'
p601
aS'HLA-A02:124'
p602
aS'HLA-A02:126'
p603
aS'HLA-A02:127'
p604
aS'HLA-A02:128'
p605
aS'HLA-A02:129'
p606
aS'HLA-A02:13'
p607
aS'HLA-A02:130'
p608
aS'HLA-A02:131'
p609
aS'HLA-A02:132'
p610
aS'HLA-A02:133'
p611
aS'HLA-A02:134'
p612
aS'HLA-A02:135'
p613
aS'HLA-A02:136'
p614
aS'HLA-A02:137'
p615
aS'HLA-A02:138'
p616
aS'HLA-A02:139'
p617
aS'HLA-A02:14'
p618
aS'HLA-A02:140'
p619
aS'HLA-A02:141'
p620
aS'HLA-A02:142'
p621
aS'HLA-A02:143'
p622
aS'HLA-A02:144'
p623
aS'HLA-A02:145'
p624
aS'HLA-A02:146'
p625
aS'HLA-A02:147'
p626
aS'HLA-A02:148'
p627
aS'HLA-A02:149'
p628
aS'HLA-A02:150'
p629
aS'HLA-A02:151'
p630
aS'HLA-A02:152'
p631
aS'HLA-A02:153'
p632
aS'HLA-A02:154'
p633
aS'HLA-A02:155'
p634
aS'HLA-A02:156'
p635
aS'HLA-A02:157'
p636
aS'HLA-A02:158'
p637
aS'HLA-A02:159'
p638
aS'HLA-A02:16'
p639
aS'HLA-A02:160'
p640
aS'HLA-A02:161'
p641
aS'HLA-A02:162'
p642
aS'HLA-A02:163'
p643
aS'HLA-A02:164'
p644
aS'HLA-A02:165'
p645
aS'HLA-A02:166'
p646
aS'HLA-A02:167'
p647
aS'HLA-A02:168'
p648
aS'HLA-A02:169'
p649
aS'HLA-A02:17'
p650
aS'HLA-A02:170'
p651
aS'HLA-A02:171'
p652
aS'HLA-A02:172'
p653
aS'HLA-A02:173'
p654
aS'HLA-A02:174'
p655
aS'HLA-A02:175'
p656
aS'HLA-A02:176'
p657
aS'HLA-A02:177'
p658
aS'HLA-A02:178'
p659
aS'HLA-A02:179'
p660
aS'HLA-A02:18'
p661
aS'HLA-A02:180'
p662
aS'HLA-A02:181'
p663
aS'HLA-A02:182'
p664
aS'HLA-A02:183'
p665
aS'HLA-A02:184'
p666
aS'HLA-A02:185'
p667
aS'HLA-A02:186'
p668
aS'HLA-A02:187'
p669
aS'HLA-A02:188'
p670
aS'HLA-A02:189'
p671
aS'HLA-A02:19'
p672
aS'HLA-A02:190'
p673
aS'HLA-A02:191'
p674
aS'HLA-A02:192'
p675
aS'HLA-A02:193'
p676
aS'HLA-A02:194'
p677
aS'HLA-A02:195'
p678
aS'HLA-A02:196'
p679
aS'HLA-A02:197'
p680
aS'HLA-A02:198'
p681
aS'HLA-A02:199'
p682
aS'HLA-A02:20'
p683
aS'HLA-A02:200'
p684
aS'HLA-A02:201'
p685
aS'HLA-A02:202'
p686
aS'HLA-A02:203'
p687
aS'HLA-A02:204'
p688
aS'HLA-A02:205'
p689
aS'HLA-A02:206'
p690
aS'HLA-A02:207'
p691
aS'HLA-A02:208'
p692
aS'HLA-A02:209'
p693
aS'HLA-A02:21'
p694
aS'HLA-A02:210'
p695
aS'HLA-A02:211'
p696
aS'HLA-A02:212'
p697
aS'HLA-A02:213'
p698
aS'HLA-A02:214'
p699
aS'HLA-A02:215'
p700
aS'HLA-A02:216'
p701
aS'HLA-A02:217'
p702
aS'HLA-A02:218'
p703
aS'HLA-A02:219'
p704
aS'HLA-A02:22'
p705
aS'HLA-A02:220'
p706
aS'HLA-A02:221'
p707
aS'HLA-A02:224'
p708
aS'HLA-A02:228'
p709
aS'HLA-A02:229'
p710
aS'HLA-A02:230'
p711
aS'HLA-A02:231'
p712
aS'HLA-A02:232'
p713
aS'HLA-A02:233'
p714
aS'HLA-A02:234'
p715
aS'HLA-A02:235'
p716
aS'HLA-A02:236'
p717
aS'HLA-A02:237'
p718
aS'HLA-A02:238'
p719
aS'HLA-A02:239'
p720
aS'HLA-A02:24'
p721
aS'HLA-A02:240'
p722
aS'HLA-A02:241'
p723
aS'HLA-A02:242'
p724
aS'HLA-A02:243'
p725
aS'HLA-A02:244'
p726
aS'HLA-A02:245'
p727
aS'HLA-A02:246'
p728
aS'HLA-A02:247'
p729
aS'HLA-A02:248'
p730
aS'HLA-A02:249'
p731
aS'HLA-A02:25'
p732
aS'HLA-A02:251'
p733
aS'HLA-A02:252'
p734
aS'HLA-A02:253'
p735
aS'HLA-A02:254'
p736
aS'HLA-A02:255'
p737
aS'HLA-A02:256'
p738
aS'HLA-A02:257'
p739
aS'HLA-A02:258'
p740
aS'HLA-A02:259'
p741
aS'HLA-A02:26'
p742
aS'HLA-A02:260'
p743
aS'HLA-A02:261'
p744
aS'HLA-A02:262'
p745
aS'HLA-A02:263'
p746
aS'HLA-A02:264'
p747
aS'HLA-A02:265'
p748
aS'HLA-A02:266'
p749
aS'HLA-A02:27'
p750
aS'HLA-A02:28'
p751
aS'HLA-A02:29'
p752
aS'HLA-A02:30'
p753
aS'HLA-A02:31'
p754
aS'HLA-A02:33'
p755
aS'HLA-A02:34'
p756
aS'HLA-A02:35'
p757
aS'HLA-A02:36'
p758
aS'HLA-A02:37'
p759
aS'HLA-A02:38'
p760
aS'HLA-A02:39'
p761
aS'HLA-A02:40'
p762
aS'HLA-A02:41'
p763
aS'HLA-A02:42'
p764
aS'HLA-A02:44'
p765
aS'HLA-A02:45'
p766
aS'HLA-A02:46'
p767
aS'HLA-A02:47'
p768
aS'HLA-A02:48'
p769
aS'HLA-A02:49'
p770
aS'HLA-A02:50'
p771
aS'HLA-A02:51'
p772
aS'HLA-A02:52'
p773
aS'HLA-A02:54'
p774
aS'HLA-A02:55'
p775
aS'HLA-A02:56'
p776
aS'HLA-A02:57'
p777
aS'HLA-A02:58'
p778
aS'HLA-A02:59'
p779
aS'HLA-A02:60'
p780
aS'HLA-A02:61'
p781
aS'HLA-A02:62'
p782
aS'HLA-A02:63'
p783
aS'HLA-A02:64'
p784
aS'HLA-A02:65'
p785
aS'HLA-A02:66'
p786
aS'HLA-A02:67'
p787
aS'HLA-A02:68'
p788
aS'HLA-A02:69'
p789
aS'HLA-A02:70'
p790
aS'HLA-A02:71'
p791
aS'HLA-A02:72'
p792
aS'HLA-A02:73'
p793
aS'HLA-A02:74'
p794
aS'HLA-A02:75'
p795
aS'HLA-A02:76'
p796
aS'HLA-A02:77'
p797
aS'HLA-A02:78'
p798
aS'HLA-A02:79'
p799
aS'HLA-A02:80'
p800
aS'HLA-A02:81'
p801
aS'HLA-A02:84'
p802
aS'HLA-A02:85'
p803
aS'HLA-A02:86'
p804
aS'HLA-A02:87'
p805
aS'HLA-A02:89'
p806
aS'HLA-A02:90'
p807
aS'HLA-A02:91'
p808
aS'HLA-A02:92'
p809
aS'HLA-A02:93'
p810
aS'HLA-A02:95'
p811
aS'HLA-A02:96'
p812
aS'HLA-A02:97'
p813
aS'HLA-A02:99'
p814
aS'HLA-A03:01'
p815
aS'HLA-A03:02'
p816
aS'HLA-A03:04'
p817
aS'HLA-A03:05'
p818
aS'HLA-A03:06'
p819
aS'HLA-A03:07'
p820
aS'HLA-A03:08'
p821
aS'HLA-A03:09'
p822
aS'HLA-A03:10'
p823
aS'HLA-A03:12'
p824
aS'HLA-A03:13'
p825
aS'HLA-A03:14'
p826
aS'HLA-A03:15'
p827
aS'HLA-A03:16'
p828
aS'HLA-A03:17'
p829
aS'HLA-A03:18'
p830
aS'HLA-A03:19'
p831
aS'HLA-A03:20'
p832
aS'HLA-A03:22'
p833
aS'HLA-A03:23'
p834
aS'HLA-A03:24'
p835
aS'HLA-A03:25'
p836
aS'HLA-A03:26'
p837
aS'HLA-A03:27'
p838
aS'HLA-A03:28'
p839
aS'HLA-A03:29'
p840
aS'HLA-A03:30'
p841
aS'HLA-A03:31'
p842
aS'HLA-A03:32'
p843
aS'HLA-A03:33'
p844
aS'HLA-A03:34'
p845
aS'HLA-A03:35'
p846
aS'HLA-A03:37'
p847
aS'HLA-A03:38'
p848
aS'HLA-A03:39'
p849
aS'HLA-A03:40'
p850
aS'HLA-A03:41'
p851
aS'HLA-A03:42'
p852
aS'HLA-A03:43'
p853
aS'HLA-A03:44'
p854
aS'HLA-A03:45'
p855
aS'HLA-A03:46'
p856
aS'HLA-A03:47'
p857
aS'HLA-A03:48'
p858
aS'HLA-A03:49'
p859
aS'HLA-A03:50'
p860
aS'HLA-A03:51'
p861
aS'HLA-A03:52'
p862
aS'HLA-A03:53'
p863
aS'HLA-A03:54'
p864
aS'HLA-A03:55'
p865
aS'HLA-A03:56'
p866
aS'HLA-A03:57'
p867
aS'HLA-A03:58'
p868
aS'HLA-A03:59'
p869
aS'HLA-A03:60'
p870
aS'HLA-A03:61'
p871
aS'HLA-A03:62'
p872
aS'HLA-A03:63'
p873
aS'HLA-A03:64'
p874
aS'HLA-A03:65'
p875
aS'HLA-A03:66'
p876
aS'HLA-A03:67'
p877
aS'HLA-A03:70'
p878
aS'HLA-A03:71'
p879
aS'HLA-A03:72'
p880
aS'HLA-A03:73'
p881
aS'HLA-A03:74'
p882
aS'HLA-A03:75'
p883
aS'HLA-A03:76'
p884
aS'HLA-A03:77'
p885
aS'HLA-A03:78'
p886
aS'HLA-A03:79'
p887
aS'HLA-A03:80'
p888
aS'HLA-A03:81'
p889
aS'HLA-A03:82'
p890
aS'HLA-A11:01'
p891
aS'HLA-A11:02'
p892
aS'HLA-A11:03'
p893
aS'HLA-A11:04'
p894
aS'HLA-A11:05'
p895
aS'HLA-A11:06'
p896
aS'HLA-A11:07'
p897
aS'HLA-A11:08'
p898
aS'HLA-A11:09'
p899
aS'HLA-A11:10'
p900
aS'HLA-A11:11'
p901
aS'HLA-A11:12'
p902
aS'HLA-A11:13'
p903
aS'HLA-A11:14'
p904
aS'HLA-A11:15'
p905
aS'HLA-A11:16'
p906
aS'HLA-A11:17'
p907
aS'HLA-A11:18'
p908
aS'HLA-A11:19'
p909
aS'HLA-A11:20'
p910
aS'HLA-A11:22'
p911
aS'HLA-A11:23'
p912
aS'HLA-A11:24'
p913
aS'HLA-A11:25'
p914
aS'HLA-A11:26'
p915
aS'HLA-A11:27'
p916
aS'HLA-A11:29'
p917
aS'HLA-A11:30'
p918
aS'HLA-A11:31'
p919
aS'HLA-A11:32'
p920
aS'HLA-A11:33'
p921
aS'HLA-A11:34'
p922
aS'HLA-A11:35'
p923
aS'HLA-A11:36'
p924
aS'HLA-A11:37'
p925
aS'HLA-A11:38'
p926
aS'HLA-A11:39'
p927
aS'HLA-A11:40'
p928
aS'HLA-A11:41'
p929
aS'HLA-A11:42'
p930
aS'HLA-A11:43'
p931
aS'HLA-A11:44'
p932
aS'HLA-A11:45'
p933
aS'HLA-A11:46'
p934
aS'HLA-A11:47'
p935
aS'HLA-A11:48'
p936
aS'HLA-A11:49'
p937
aS'HLA-A11:51'
p938
aS'HLA-A11:53'
p939
aS'HLA-A11:54'
p940
aS'HLA-A11:55'
p941
aS'HLA-A11:56'
p942
aS'HLA-A11:57'
p943
aS'HLA-A11:58'
p944
aS'HLA-A11:59'
p945
aS'HLA-A11:60'
p946
aS'HLA-A11:61'
p947
aS'HLA-A11:62'
p948
aS'HLA-A11:63'
p949
aS'HLA-A11:64'
p950
aS'HLA-A23:01'
p951
aS'HLA-A23:02'
p952
aS'HLA-A23:03'
p953
aS'HLA-A23:04'
p954
aS'HLA-A23:05'
p955
aS'HLA-A23:06'
p956
aS'HLA-A23:09'
p957
aS'HLA-A23:10'
p958
aS'HLA-A23:12'
p959
aS'HLA-A23:13'
p960
aS'HLA-A23:14'
p961
aS'HLA-A23:15'
p962
aS'HLA-A23:16'
p963
aS'HLA-A23:17'
p964
aS'HLA-A23:18'
p965
aS'HLA-A23:20'
p966
aS'HLA-A23:21'
p967
aS'HLA-A23:22'
p968
aS'HLA-A23:23'
p969
aS'HLA-A23:24'
p970
aS'HLA-A23:25'
p971
aS'HLA-A23:26'
p972
aS'HLA-A24:02'
p973
aS'HLA-A24:03'
p974
aS'HLA-A24:04'
p975
aS'HLA-A24:05'
p976
aS'HLA-A24:06'
p977
aS'HLA-A24:07'
p978
aS'HLA-A24:08'
p979
aS'HLA-A24:10'
p980
aS'HLA-A24:100'
p981
aS'HLA-A24:101'
p982
aS'HLA-A24:102'
p983
aS'HLA-A24:103'
p984
aS'HLA-A24:104'
p985
aS'HLA-A24:105'
p986
aS'HLA-A24:106'
p987
aS'HLA-A24:107'
p988
aS'HLA-A24:108'
p989
aS'HLA-A24:109'
p990
aS'HLA-A24:110'
p991
aS'HLA-A24:111'
p992
aS'HLA-A24:112'
p993
aS'HLA-A24:113'
p994
aS'HLA-A24:114'
p995
aS'HLA-A24:115'
p996
aS'HLA-A24:116'
p997
aS'HLA-A24:117'
p998
aS'HLA-A24:118'
p999
aS'HLA-A24:119'
p1000
aS'HLA-A24:120'
p1001
aS'HLA-A24:121'
p1002
aS'HLA-A24:122'
p1003
aS'HLA-A24:123'
p1004
aS'HLA-A24:124'
p1005
aS'HLA-A24:125'
p1006
aS'HLA-A24:126'
p1007
aS'HLA-A24:127'
p1008
aS'HLA-A24:128'
p1009
aS'HLA-A24:129'
p1010
aS'HLA-A24:13'
p1011
aS'HLA-A24:130'
p1012
aS'HLA-A24:131'
p1013
aS'HLA-A24:133'
p1014
aS'HLA-A24:134'
p1015
aS'HLA-A24:135'
p1016
aS'HLA-A24:136'
p1017
aS'HLA-A24:137'
p1018
aS'HLA-A24:138'
p1019
aS'HLA-A24:139'
p1020
aS'HLA-A24:14'
p1021
aS'HLA-A24:140'
p1022
aS'HLA-A24:141'
p1023
aS'HLA-A24:142'
p1024
aS'HLA-A24:143'
p1025
aS'HLA-A24:144'
p1026
aS'HLA-A24:15'
p1027
aS'HLA-A24:17'
p1028
aS'HLA-A24:18'
p1029
aS'HLA-A24:19'
p1030
aS'HLA-A24:20'
p1031
aS'HLA-A24:21'
p1032
aS'HLA-A24:22'
p1033
aS'HLA-A24:23'
p1034
aS'HLA-A24:24'
p1035
aS'HLA-A24:25'
p1036
aS'HLA-A24:26'
p1037
aS'HLA-A24:27'
p1038
aS'HLA-A24:28'
p1039
aS'HLA-A24:29'
p1040
aS'HLA-A24:30'
p1041
aS'HLA-A24:31'
p1042
aS'HLA-A24:32'
p1043
aS'HLA-A24:33'
p1044
aS'HLA-A24:34'
p1045
aS'HLA-A24:35'
p1046
aS'HLA-A24:37'
p1047
aS'HLA-A24:38'
p1048
aS'HLA-A24:39'
p1049
aS'HLA-A24:41'
p1050
aS'HLA-A24:42'
p1051
aS'HLA-A24:43'
p1052
aS'HLA-A24:44'
p1053
aS'HLA-A24:46'
p1054
aS'HLA-A24:47'
p1055
aS'HLA-A24:49'
p1056
aS'HLA-A24:50'
p1057
aS'HLA-A24:51'
p1058
aS'HLA-A24:52'
p1059
aS'HLA-A24:53'
p1060
aS'HLA-A24:54'
p1061
aS'HLA-A24:55'
p1062
aS'HLA-A24:56'
p1063
aS'HLA-A24:57'
p1064
aS'HLA-A24:58'
p1065
aS'HLA-A24:59'
p1066
aS'HLA-A24:61'
p1067
aS'HLA-A24:62'
p1068
aS'HLA-A24:63'
p1069
aS'HLA-A24:64'
p1070
aS'HLA-A24:66'
p1071
aS'HLA-A24:67'
p1072
aS'HLA-A24:68'
p1073
aS'HLA-A24:69'
p1074
aS'HLA-A24:70'
p1075
aS'HLA-A24:71'
p1076
aS'HLA-A24:72'
p1077
aS'HLA-A24:73'
p1078
aS'HLA-A24:74'
p1079
aS'HLA-A24:75'
p1080
aS'HLA-A24:76'
p1081
aS'HLA-A24:77'
p1082
aS'HLA-A24:78'
p1083
aS'HLA-A24:79'
p1084
aS'HLA-A24:80'
p1085
aS'HLA-A24:81'
p1086
aS'HLA-A24:82'
p1087
aS'HLA-A24:85'
p1088
aS'HLA-A24:87'
p1089
aS'HLA-A24:88'
p1090
aS'HLA-A24:89'
p1091
aS'HLA-A24:91'
p1092
aS'HLA-A24:92'
p1093
aS'HLA-A24:93'
p1094
aS'HLA-A24:94'
p1095
aS'HLA-A24:95'
p1096
aS'HLA-A24:96'
p1097
aS'HLA-A24:97'
p1098
aS'HLA-A24:98'
p1099
aS'HLA-A24:99'
p1100
aS'HLA-A25:01'
p1101
aS'HLA-A25:02'
p1102
aS'HLA-A25:03'
p1103
aS'HLA-A25:04'
p1104
aS'HLA-A25:05'
p1105
aS'HLA-A25:06'
p1106
aS'HLA-A25:07'
p1107
aS'HLA-A25:08'
p1108
aS'HLA-A25:09'
p1109
aS'HLA-A25:10'
p1110
aS'HLA-A25:11'
p1111
aS'HLA-A25:13'
p1112
aS'HLA-A26:01'
p1113
aS'HLA-A26:02'
p1114
aS'HLA-A26:03'
p1115
aS'HLA-A26:04'
p1116
aS'HLA-A26:05'
p1117
aS'HLA-A26:06'
p1118
aS'HLA-A26:07'
p1119
aS'HLA-A26:08'
p1120
aS'HLA-A26:09'
p1121
aS'HLA-A26:10'
p1122
aS'HLA-A26:12'
p1123
aS'HLA-A26:13'
p1124
aS'HLA-A26:14'
p1125
aS'HLA-A26:15'
p1126
aS'HLA-A26:16'
p1127
aS'HLA-A26:17'
p1128
aS'HLA-A26:18'
p1129
aS'HLA-A26:19'
p1130
aS'HLA-A26:20'
p1131
aS'HLA-A26:21'
p1132
aS'HLA-A26:22'
p1133
aS'HLA-A26:23'
p1134
aS'HLA-A26:24'
p1135
aS'HLA-A26:26'
p1136
aS'HLA-A26:27'
p1137
aS'HLA-A26:28'
p1138
aS'HLA-A26:29'
p1139
aS'HLA-A26:30'
p1140
aS'HLA-A26:31'
p1141
aS'HLA-A26:32'
p1142
aS'HLA-A26:33'
p1143
aS'HLA-A26:34'
p1144
aS'HLA-A26:35'
p1145
aS'HLA-A26:36'
p1146
aS'HLA-A26:37'
p1147
aS'HLA-A26:38'
p1148
aS'HLA-A26:39'
p1149
aS'HLA-A26:40'
p1150
aS'HLA-A26:41'
p1151
aS'HLA-A26:42'
p1152
aS'HLA-A26:43'
p1153
aS'HLA-A26:45'
p1154
aS'HLA-A26:46'
p1155
aS'HLA-A26:47'
p1156
aS'HLA-A26:48'
p1157
aS'HLA-A26:49'
p1158
aS'HLA-A26:50'
p1159
aS'HLA-A29:01'
p1160
aS'HLA-A29:02'
p1161
aS'HLA-A29:03'
p1162
aS'HLA-A29:04'
p1163
aS'HLA-A29:05'
p1164
aS'HLA-A29:06'
p1165
aS'HLA-A29:07'
p1166
aS'HLA-A29:09'
p1167
aS'HLA-A29:10'
p1168
aS'HLA-A29:11'
p1169
aS'HLA-A29:12'
p1170
aS'HLA-A29:13'
p1171
aS'HLA-A29:14'
p1172
aS'HLA-A29:15'
p1173
aS'HLA-A29:16'
p1174
aS'HLA-A29:17'
p1175
aS'HLA-A29:18'
p1176
aS'HLA-A29:19'
p1177
aS'HLA-A29:20'
p1178
aS'HLA-A29:21'
p1179
aS'HLA-A29:22'
p1180
aS'HLA-A30:01'
p1181
aS'HLA-A30:02'
p1182
aS'HLA-A30:03'
p1183
aS'HLA-A30:04'
p1184
aS'HLA-A30:06'
p1185
aS'HLA-A30:07'
p1186
aS'HLA-A30:08'
p1187
aS'HLA-A30:09'
p1188
aS'HLA-A30:10'
p1189
aS'HLA-A30:11'
p1190
aS'HLA-A30:12'
p1191
aS'HLA-A30:13'
p1192
aS'HLA-A30:15'
p1193
aS'HLA-A30:16'
p1194
aS'HLA-A30:17'
p1195
aS'HLA-A30:18'
p1196
aS'HLA-A30:19'
p1197
aS'HLA-A30:20'
p1198
aS'HLA-A30:22'
p1199
aS'HLA-A30:23'
p1200
aS'HLA-A30:24'
p1201
aS'HLA-A30:25'
p1202
aS'HLA-A30:26'
p1203
aS'HLA-A30:28'
p1204
aS'HLA-A30:29'
p1205
aS'HLA-A30:30'
p1206
aS'HLA-A30:31'
p1207
aS'HLA-A30:32'
p1208
aS'HLA-A30:33'
p1209
aS'HLA-A30:34'
p1210
aS'HLA-A30:35'
p1211
aS'HLA-A30:36'
p1212
aS'HLA-A30:37'
p1213
aS'HLA-A30:38'
p1214
aS'HLA-A30:39'
p1215
aS'HLA-A30:40'
p1216
aS'HLA-A30:41'
p1217
aS'HLA-A31:01'
p1218
aS'HLA-A31:02'
p1219
aS'HLA-A31:03'
p1220
aS'HLA-A31:04'
p1221
aS'HLA-A31:05'
p1222
aS'HLA-A31:06'
p1223
aS'HLA-A31:07'
p1224
aS'HLA-A31:08'
p1225
aS'HLA-A31:09'
p1226
aS'HLA-A31:10'
p1227
aS'HLA-A31:11'
p1228
aS'HLA-A31:12'
p1229
aS'HLA-A31:13'
p1230
aS'HLA-A31:15'
p1231
aS'HLA-A31:16'
p1232
aS'HLA-A31:17'
p1233
aS'HLA-A31:18'
p1234
aS'HLA-A31:19'
p1235
aS'HLA-A31:20'
p1236
aS'HLA-A31:21'
p1237
aS'HLA-A31:22'
p1238
aS'HLA-A31:23'
p1239
aS'HLA-A31:24'
p1240
aS'HLA-A31:25'
p1241
aS'HLA-A31:26'
p1242
aS'HLA-A31:27'
p1243
aS'HLA-A31:28'
p1244
aS'HLA-A31:29'
p1245
aS'HLA-A31:30'
p1246
aS'HLA-A31:31'
p1247
aS'HLA-A31:32'
p1248
aS'HLA-A31:33'
p1249
aS'HLA-A31:34'
p1250
aS'HLA-A31:35'
p1251
aS'HLA-A31:36'
p1252
aS'HLA-A31:37'
p1253
aS'HLA-A32:01'
p1254
aS'HLA-A32:02'
p1255
aS'HLA-A32:03'
p1256
aS'HLA-A32:04'
p1257
aS'HLA-A32:05'
p1258
aS'HLA-A32:06'
p1259
aS'HLA-A32:07'
p1260
aS'HLA-A32:08'
p1261
aS'HLA-A32:09'
p1262
aS'HLA-A32:10'
p1263
aS'HLA-A32:12'
p1264
aS'HLA-A32:13'
p1265
aS'HLA-A32:14'
p1266
aS'HLA-A32:15'
p1267
aS'HLA-A32:16'
p1268
aS'HLA-A32:17'
p1269
aS'HLA-A32:18'
p1270
aS'HLA-A32:20'
p1271
aS'HLA-A32:21'
p1272
aS'HLA-A32:22'
p1273
aS'HLA-A32:23'
p1274
aS'HLA-A32:24'
p1275
aS'HLA-A32:25'
p1276
aS'HLA-A33:01'
p1277
aS'HLA-A33:03'
p1278
aS'HLA-A33:04'
p1279
aS'HLA-A33:05'
p1280
aS'HLA-A33:06'
p1281
aS'HLA-A33:07'
p1282
aS'HLA-A33:08'
p1283
aS'HLA-A33:09'
p1284
aS'HLA-A33:10'
p1285
aS'HLA-A33:11'
p1286
aS'HLA-A33:12'
p1287
aS'HLA-A33:13'
p1288
aS'HLA-A33:14'
p1289
aS'HLA-A33:15'
p1290
aS'HLA-A33:16'
p1291
aS'HLA-A33:17'
p1292
aS'HLA-A33:18'
p1293
aS'HLA-A33:19'
p1294
aS'HLA-A33:20'
p1295
aS'HLA-A33:21'
p1296
aS'HLA-A33:22'
p1297
aS'HLA-A33:23'
p1298
aS'HLA-A33:24'
p1299
aS'HLA-A33:25'
p1300
aS'HLA-A33:26'
p1301
aS'HLA-A33:27'
p1302
aS'HLA-A33:28'
p1303
aS'HLA-A33:29'
p1304
aS'HLA-A33:30'
p1305
aS'HLA-A33:31'
p1306
aS'HLA-A34:01'
p1307
aS'HLA-A34:02'
p1308
aS'HLA-A34:03'
p1309
aS'HLA-A34:04'
p1310
aS'HLA-A34:05'
p1311
aS'HLA-A34:06'
p1312
aS'HLA-A34:07'
p1313
aS'HLA-A34:08'
p1314
aS'HLA-A36:01'
p1315
aS'HLA-A36:02'
p1316
aS'HLA-A36:03'
p1317
aS'HLA-A36:04'
p1318
aS'HLA-A36:05'
p1319
aS'HLA-A43:01'
p1320
aS'HLA-A66:01'
p1321
aS'HLA-A66:02'
p1322
aS'HLA-A66:03'
p1323
aS'HLA-A66:04'
p1324
aS'HLA-A66:05'
p1325
aS'HLA-A66:06'
p1326
aS'HLA-A66:07'
p1327
aS'HLA-A66:08'
p1328
aS'HLA-A66:09'
p1329
aS'HLA-A66:10'
p1330
aS'HLA-A66:11'
p1331
aS'HLA-A66:12'
p1332
aS'HLA-A66:13'
p1333
aS'HLA-A66:14'
p1334
aS'HLA-A66:15'
p1335
aS'HLA-A68:01'
p1336
aS'HLA-A68:02'
p1337
aS'HLA-A68:03'
p1338
aS'HLA-A68:04'
p1339
aS'HLA-A68:05'
p1340
aS'HLA-A68:06'
p1341
aS'HLA-A68:07'
p1342
aS'HLA-A68:08'
p1343
aS'HLA-A68:09'
p1344
aS'HLA-A68:10'
p1345
aS'HLA-A68:12'
p1346
aS'HLA-A68:13'
p1347
aS'HLA-A68:14'
p1348
aS'HLA-A68:15'
p1349
aS'HLA-A68:16'
p1350
aS'HLA-A68:17'
p1351
aS'HLA-A68:19'
p1352
aS'HLA-A68:20'
p1353
aS'HLA-A68:21'
p1354
aS'HLA-A68:22'
p1355
aS'HLA-A68:23'
p1356
aS'HLA-A68:24'
p1357
aS'HLA-A68:25'
p1358
aS'HLA-A68:26'
p1359
aS'HLA-A68:27'
p1360
aS'HLA-A68:28'
p1361
aS'HLA-A68:29'
p1362
aS'HLA-A68:30'
p1363
aS'HLA-A68:31'
p1364
aS'HLA-A68:32'
p1365
aS'HLA-A68:33'
p1366
aS'HLA-A68:34'
p1367
aS'HLA-A68:35'
p1368
aS'HLA-A68:36'
p1369
aS'HLA-A68:37'
p1370
aS'HLA-A68:38'
p1371
aS'HLA-A68:39'
p1372
aS'HLA-A68:40'
p1373
aS'HLA-A68:41'
p1374
aS'HLA-A68:42'
p1375
aS'HLA-A68:43'
p1376
aS'HLA-A68:44'
p1377
aS'HLA-A68:45'
p1378
aS'HLA-A68:46'
p1379
aS'HLA-A68:47'
p1380
aS'HLA-A68:48'
p1381
aS'HLA-A68:50'
p1382
aS'HLA-A68:51'
p1383
aS'HLA-A68:52'
p1384
aS'HLA-A68:53'
p1385
aS'HLA-A68:54'
p1386
aS'HLA-A69:01'
p1387
aS'HLA-A74:01'
p1388
aS'HLA-A74:02'
p1389
aS'HLA-A74:03'
p1390
aS'HLA-A74:04'
p1391
aS'HLA-A74:05'
p1392
aS'HLA-A74:06'
p1393
aS'HLA-A74:07'
p1394
aS'HLA-A74:08'
p1395
aS'HLA-A74:09'
p1396
aS'HLA-A74:10'
p1397
aS'HLA-A74:11'
p1398
aS'HLA-A74:13'
p1399
aS'HLA-A80:01'
p1400
aS'HLA-A80:02'
p1401
aS'HLA-B07:02'
p1402
aS'HLA-B07:03'
p1403
aS'HLA-B07:04'
p1404
aS'HLA-B07:05'
p1405
aS'HLA-B07:06'
p1406
aS'HLA-B07:07'
p1407
aS'HLA-B07:08'
p1408
aS'HLA-B07:09'
p1409
aS'HLA-B07:10'
p1410
aS'HLA-B07:100'
p1411
aS'HLA-B07:101'
p1412
aS'HLA-B07:102'
p1413
aS'HLA-B07:103'
p1414
aS'HLA-B07:104'
p1415
aS'HLA-B07:105'
p1416
aS'HLA-B07:106'
p1417
aS'HLA-B07:107'
p1418
aS'HLA-B07:108'
p1419
aS'HLA-B07:109'
p1420
aS'HLA-B07:11'
p1421
aS'HLA-B07:110'
p1422
aS'HLA-B07:112'
p1423
aS'HLA-B07:113'
p1424
aS'HLA-B07:114'
p1425
aS'HLA-B07:115'
p1426
aS'HLA-B07:12'
p1427
aS'HLA-B07:13'
p1428
aS'HLA-B07:14'
p1429
aS'HLA-B07:15'
p1430
aS'HLA-B07:16'
p1431
aS'HLA-B07:17'
p1432
aS'HLA-B07:18'
p1433
aS'HLA-B07:19'
p1434
aS'HLA-B07:20'
p1435
aS'HLA-B07:21'
p1436
aS'HLA-B07:22'
p1437
aS'HLA-B07:23'
p1438
aS'HLA-B07:24'
p1439
aS'HLA-B07:25'
p1440
aS'HLA-B07:26'
p1441
aS'HLA-B07:27'
p1442
aS'HLA-B07:28'
p1443
aS'HLA-B07:29'
p1444
aS'HLA-B07:30'
p1445
aS'HLA-B07:31'
p1446
aS'HLA-B07:32'
p1447
aS'HLA-B07:33'
p1448
aS'HLA-B07:34'
p1449
aS'HLA-B07:35'
p1450
aS'HLA-B07:36'
p1451
aS'HLA-B07:37'
p1452
aS'HLA-B07:38'
p1453
aS'HLA-B07:39'
p1454
aS'HLA-B07:40'
p1455
aS'HLA-B07:41'
p1456
aS'HLA-B07:42'
p1457
aS'HLA-B07:43'
p1458
aS'HLA-B07:44'
p1459
aS'HLA-B07:45'
p1460
aS'HLA-B07:46'
p1461
aS'HLA-B07:47'
p1462
aS'HLA-B07:48'
p1463
aS'HLA-B07:50'
p1464
aS'HLA-B07:51'
p1465
aS'HLA-B07:52'
p1466
aS'HLA-B07:53'
p1467
aS'HLA-B07:54'
p1468
aS'HLA-B07:55'
p1469
aS'HLA-B07:56'
p1470
aS'HLA-B07:57'
p1471
aS'HLA-B07:58'
p1472
aS'HLA-B07:59'
p1473
aS'HLA-B07:60'
p1474
aS'HLA-B07:61'
p1475
aS'HLA-B07:62'
p1476
aS'HLA-B07:63'
p1477
aS'HLA-B07:64'
p1478
aS'HLA-B07:65'
p1479
aS'HLA-B07:66'
p1480
aS'HLA-B07:68'
p1481
aS'HLA-B07:69'
p1482
aS'HLA-B07:70'
p1483
aS'HLA-B07:71'
p1484
aS'HLA-B07:72'
p1485
aS'HLA-B07:73'
p1486
aS'HLA-B07:74'
p1487
aS'HLA-B07:75'
p1488
aS'HLA-B07:76'
p1489
aS'HLA-B07:77'
p1490
aS'HLA-B07:78'
p1491
aS'HLA-B07:79'
p1492
aS'HLA-B07:80'
p1493
aS'HLA-B07:81'
p1494
aS'HLA-B07:82'
p1495
aS'HLA-B07:83'
p1496
aS'HLA-B07:84'
p1497
aS'HLA-B07:85'
p1498
aS'HLA-B07:86'
p1499
aS'HLA-B07:87'
p1500
aS'HLA-B07:88'
p1501
aS'HLA-B07:89'
p1502
aS'HLA-B07:90'
p1503
aS'HLA-B07:91'
p1504
aS'HLA-B07:92'
p1505
aS'HLA-B07:93'
p1506
aS'HLA-B07:94'
p1507
aS'HLA-B07:95'
p1508
aS'HLA-B07:96'
p1509
aS'HLA-B07:97'
p1510
aS'HLA-B07:98'
p1511
aS'HLA-B07:99'
p1512
aS'HLA-B08:01'
p1513
aS'HLA-B08:02'
p1514
aS'HLA-B08:03'
p1515
aS'HLA-B08:04'
p1516
aS'HLA-B08:05'
p1517
aS'HLA-B08:07'
p1518
aS'HLA-B08:09'
p1519
aS'HLA-B08:10'
p1520
aS'HLA-B08:11'
p1521
aS'HLA-B08:12'
p1522
aS'HLA-B08:13'
p1523
aS'HLA-B08:14'
p1524
aS'HLA-B08:15'
p1525
aS'HLA-B08:16'
p1526
aS'HLA-B08:17'
p1527
aS'HLA-B08:18'
p1528
aS'HLA-B08:20'
p1529
aS'HLA-B08:21'
p1530
aS'HLA-B08:22'
p1531
aS'HLA-B08:23'
p1532
aS'HLA-B08:24'
p1533
aS'HLA-B08:25'
p1534
aS'HLA-B08:26'
p1535
aS'HLA-B08:27'
p1536
aS'HLA-B08:28'
p1537
aS'HLA-B08:29'
p1538
aS'HLA-B08:31'
p1539
aS'HLA-B08:32'
p1540
aS'HLA-B08:33'
p1541
aS'HLA-B08:34'
p1542
aS'HLA-B08:35'
p1543
aS'HLA-B08:36'
p1544
aS'HLA-B08:37'
p1545
aS'HLA-B08:38'
p1546
aS'HLA-B08:39'
p1547
aS'HLA-B08:40'
p1548
aS'HLA-B08:41'
p1549
aS'HLA-B08:42'
p1550
aS'HLA-B08:43'
p1551
aS'HLA-B08:44'
p1552
aS'HLA-B08:45'
p1553
aS'HLA-B08:46'
p1554
aS'HLA-B08:47'
p1555
aS'HLA-B08:48'
p1556
aS'HLA-B08:49'
p1557
aS'HLA-B08:50'
p1558
aS'HLA-B08:51'
p1559
aS'HLA-B08:52'
p1560
aS'HLA-B08:53'
p1561
aS'HLA-B08:54'
p1562
aS'HLA-B08:55'
p1563
aS'HLA-B08:56'
p1564
aS'HLA-B08:57'
p1565
aS'HLA-B08:58'
p1566
aS'HLA-B08:59'
p1567
aS'HLA-B08:60'
p1568
aS'HLA-B08:61'
p1569
aS'HLA-B08:62'
p1570
aS'HLA-B13:01'
p1571
aS'HLA-B13:02'
p1572
aS'HLA-B13:03'
p1573
aS'HLA-B13:04'
p1574
aS'HLA-B13:06'
p1575
aS'HLA-B13:09'
p1576
aS'HLA-B13:10'
p1577
aS'HLA-B13:11'
p1578
aS'HLA-B13:12'
p1579
aS'HLA-B13:13'
p1580
aS'HLA-B13:14'
p1581
aS'HLA-B13:15'
p1582
aS'HLA-B13:16'
p1583
aS'HLA-B13:17'
p1584
aS'HLA-B13:18'
p1585
aS'HLA-B13:19'
p1586
aS'HLA-B13:20'
p1587
aS'HLA-B13:21'
p1588
aS'HLA-B13:22'
p1589
aS'HLA-B13:23'
p1590
aS'HLA-B13:25'
p1591
aS'HLA-B13:26'
p1592
aS'HLA-B13:27'
p1593
aS'HLA-B13:28'
p1594
aS'HLA-B13:29'
p1595
aS'HLA-B13:30'
p1596
aS'HLA-B13:31'
p1597
aS'HLA-B13:32'
p1598
aS'HLA-B13:33'
p1599
aS'HLA-B13:34'
p1600
aS'HLA-B13:35'
p1601
aS'HLA-B13:36'
p1602
aS'HLA-B13:37'
p1603
aS'HLA-B13:38'
p1604
aS'HLA-B13:39'
p1605
aS'HLA-B14:01'
p1606
aS'HLA-B14:02'
p1607
aS'HLA-B14:03'
p1608
aS'HLA-B14:04'
p1609
aS'HLA-B14:05'
p1610
aS'HLA-B14:06'
p1611
aS'HLA-B14:08'
p1612
aS'HLA-B14:09'
p1613
aS'HLA-B14:10'
p1614
aS'HLA-B14:11'
p1615
aS'HLA-B14:12'
p1616
aS'HLA-B14:13'
p1617
aS'HLA-B14:14'
p1618
aS'HLA-B14:15'
p1619
aS'HLA-B14:16'
p1620
aS'HLA-B14:17'
p1621
aS'HLA-B14:18'
p1622
aS'HLA-B15:01'
p1623
aS'HLA-B15:02'
p1624
aS'HLA-B15:03'
p1625
aS'HLA-B15:04'
p1626
aS'HLA-B15:05'
p1627
aS'HLA-B15:06'
p1628
aS'HLA-B15:07'
p1629
aS'HLA-B15:08'
p1630
aS'HLA-B15:09'
p1631
aS'HLA-B15:10'
p1632
aS'HLA-B15:101'
p1633
aS'HLA-B15:102'
p1634
aS'HLA-B15:103'
p1635
aS'HLA-B15:104'
p1636
aS'HLA-B15:105'
p1637
aS'HLA-B15:106'
p1638
aS'HLA-B15:107'
p1639
aS'HLA-B15:108'
p1640
aS'HLA-B15:109'
p1641
aS'HLA-B15:11'
p1642
aS'HLA-B15:110'
p1643
aS'HLA-B15:112'
p1644
aS'HLA-B15:113'
p1645
aS'HLA-B15:114'
p1646
aS'HLA-B15:115'
p1647
aS'HLA-B15:116'
p1648
aS'HLA-B15:117'
p1649
aS'HLA-B15:118'
p1650
aS'HLA-B15:119'
p1651
aS'HLA-B15:12'
p1652
aS'HLA-B15:120'
p1653
aS'HLA-B15:121'
p1654
aS'HLA-B15:122'
p1655
aS'HLA-B15:123'
p1656
aS'HLA-B15:124'
p1657
aS'HLA-B15:125'
p1658
aS'HLA-B15:126'
p1659
aS'HLA-B15:127'
p1660
aS'HLA-B15:128'
p1661
aS'HLA-B15:129'
p1662
aS'HLA-B15:13'
p1663
aS'HLA-B15:131'
p1664
aS'HLA-B15:132'
p1665
aS'HLA-B15:133'
p1666
aS'HLA-B15:134'
p1667
aS'HLA-B15:135'
p1668
aS'HLA-B15:136'
p1669
aS'HLA-B15:137'
p1670
aS'HLA-B15:138'
p1671
aS'HLA-B15:139'
p1672
aS'HLA-B15:14'
p1673
aS'HLA-B15:140'
p1674
aS'HLA-B15:141'
p1675
aS'HLA-B15:142'
p1676
aS'HLA-B15:143'
p1677
aS'HLA-B15:144'
p1678
aS'HLA-B15:145'
p1679
aS'HLA-B15:146'
p1680
aS'HLA-B15:147'
p1681
aS'HLA-B15:148'
p1682
aS'HLA-B15:15'
p1683
aS'HLA-B15:150'
p1684
aS'HLA-B15:151'
p1685
aS'HLA-B15:152'
p1686
aS'HLA-B15:153'
p1687
aS'HLA-B15:154'
p1688
aS'HLA-B15:155'
p1689
aS'HLA-B15:156'
p1690
aS'HLA-B15:157'
p1691
aS'HLA-B15:158'
p1692
aS'HLA-B15:159'
p1693
aS'HLA-B15:16'
p1694
aS'HLA-B15:160'
p1695
aS'HLA-B15:161'
p1696
aS'HLA-B15:162'
p1697
aS'HLA-B15:163'
p1698
aS'HLA-B15:164'
p1699
aS'HLA-B15:165'
p1700
aS'HLA-B15:166'
p1701
aS'HLA-B15:167'
p1702
aS'HLA-B15:168'
p1703
aS'HLA-B15:169'
p1704
aS'HLA-B15:17'
p1705
aS'HLA-B15:170'
p1706
aS'HLA-B15:171'
p1707
aS'HLA-B15:172'
p1708
aS'HLA-B15:173'
p1709
aS'HLA-B15:174'
p1710
aS'HLA-B15:175'
p1711
aS'HLA-B15:176'
p1712
aS'HLA-B15:177'
p1713
aS'HLA-B15:178'
p1714
aS'HLA-B15:179'
p1715
aS'HLA-B15:18'
p1716
aS'HLA-B15:180'
p1717
aS'HLA-B15:183'
p1718
aS'HLA-B15:184'
p1719
aS'HLA-B15:185'
p1720
aS'HLA-B15:186'
p1721
aS'HLA-B15:187'
p1722
aS'HLA-B15:188'
p1723
aS'HLA-B15:189'
p1724
aS'HLA-B15:19'
p1725
aS'HLA-B15:191'
p1726
aS'HLA-B15:192'
p1727
aS'HLA-B15:193'
p1728
aS'HLA-B15:194'
p1729
aS'HLA-B15:195'
p1730
aS'HLA-B15:196'
p1731
aS'HLA-B15:197'
p1732
aS'HLA-B15:198'
p1733
aS'HLA-B15:199'
p1734
aS'HLA-B15:20'
p1735
aS'HLA-B15:200'
p1736
aS'HLA-B15:201'
p1737
aS'HLA-B15:202'
p1738
aS'HLA-B15:21'
p1739
aS'HLA-B15:23'
p1740
aS'HLA-B15:24'
p1741
aS'HLA-B15:25'
p1742
aS'HLA-B15:27'
p1743
aS'HLA-B15:28'
p1744
aS'HLA-B15:29'
p1745
aS'HLA-B15:30'
p1746
aS'HLA-B15:31'
p1747
aS'HLA-B15:32'
p1748
aS'HLA-B15:33'
p1749
aS'HLA-B15:34'
p1750
aS'HLA-B15:35'
p1751
aS'HLA-B15:36'
p1752
aS'HLA-B15:37'
p1753
aS'HLA-B15:38'
p1754
aS'HLA-B15:39'
p1755
aS'HLA-B15:40'
p1756
aS'HLA-B15:42'
p1757
aS'HLA-B15:43'
p1758
aS'HLA-B15:44'
p1759
aS'HLA-B15:45'
p1760
aS'HLA-B15:46'
p1761
aS'HLA-B15:47'
p1762
aS'HLA-B15:48'
p1763
aS'HLA-B15:49'
p1764
aS'HLA-B15:50'
p1765
aS'HLA-B15:51'
p1766
aS'HLA-B15:52'
p1767
aS'HLA-B15:53'
p1768
aS'HLA-B15:54'
p1769
aS'HLA-B15:55'
p1770
aS'HLA-B15:56'
p1771
aS'HLA-B15:57'
p1772
aS'HLA-B15:58'
p1773
aS'HLA-B15:60'
p1774
aS'HLA-B15:61'
p1775
aS'HLA-B15:62'
p1776
aS'HLA-B15:63'
p1777
aS'HLA-B15:64'
p1778
aS'HLA-B15:65'
p1779
aS'HLA-B15:66'
p1780
aS'HLA-B15:67'
p1781
aS'HLA-B15:68'
p1782
aS'HLA-B15:69'
p1783
aS'HLA-B15:70'
p1784
aS'HLA-B15:71'
p1785
aS'HLA-B15:72'
p1786
aS'HLA-B15:73'
p1787
aS'HLA-B15:74'
p1788
aS'HLA-B15:75'
p1789
aS'HLA-B15:76'
p1790
aS'HLA-B15:77'
p1791
aS'HLA-B15:78'
p1792
aS'HLA-B15:80'
p1793
aS'HLA-B15:81'
p1794
aS'HLA-B15:82'
p1795
aS'HLA-B15:83'
p1796
aS'HLA-B15:84'
p1797
aS'HLA-B15:85'
p1798
aS'HLA-B15:86'
p1799
aS'HLA-B15:87'
p1800
aS'HLA-B15:88'
p1801
aS'HLA-B15:89'
p1802
aS'HLA-B15:90'
p1803
aS'HLA-B15:91'
p1804
aS'HLA-B15:92'
p1805
aS'HLA-B15:93'
p1806
aS'HLA-B15:95'
p1807
aS'HLA-B15:96'
p1808
aS'HLA-B15:97'
p1809
aS'HLA-B15:98'
p1810
aS'HLA-B15:99'
p1811
aS'HLA-B18:01'
p1812
aS'HLA-B18:02'
p1813
aS'HLA-B18:03'
p1814
aS'HLA-B18:04'
p1815
aS'HLA-B18:05'
p1816
aS'HLA-B18:06'
p1817
aS'HLA-B18:07'
p1818
aS'HLA-B18:08'
p1819
aS'HLA-B18:09'
p1820
aS'HLA-B18:10'
p1821
aS'HLA-B18:11'
p1822
aS'HLA-B18:12'
p1823
aS'HLA-B18:13'
p1824
aS'HLA-B18:14'
p1825
aS'HLA-B18:15'
p1826
aS'HLA-B18:18'
p1827
aS'HLA-B18:19'
p1828
aS'HLA-B18:20'
p1829
aS'HLA-B18:21'
p1830
aS'HLA-B18:22'
p1831
aS'HLA-B18:24'
p1832
aS'HLA-B18:25'
p1833
aS'HLA-B18:26'
p1834
aS'HLA-B18:27'
p1835
aS'HLA-B18:28'
p1836
aS'HLA-B18:29'
p1837
aS'HLA-B18:30'
p1838
aS'HLA-B18:31'
p1839
aS'HLA-B18:32'
p1840
aS'HLA-B18:33'
p1841
aS'HLA-B18:34'
p1842
aS'HLA-B18:35'
p1843
aS'HLA-B18:36'
p1844
aS'HLA-B18:37'
p1845
aS'HLA-B18:38'
p1846
aS'HLA-B18:39'
p1847
aS'HLA-B18:40'
p1848
aS'HLA-B18:41'
p1849
aS'HLA-B18:42'
p1850
aS'HLA-B18:43'
p1851
aS'HLA-B18:44'
p1852
aS'HLA-B18:45'
p1853
aS'HLA-B18:46'
p1854
aS'HLA-B18:47'
p1855
aS'HLA-B18:48'
p1856
aS'HLA-B18:49'
p1857
aS'HLA-B18:50'
p1858
aS'HLA-B27:01'
p1859
aS'HLA-B27:02'
p1860
aS'HLA-B27:03'
p1861
aS'HLA-B27:04'
p1862
aS'HLA-B27:05'
p1863
aS'HLA-B27:06'
p1864
aS'HLA-B27:07'
p1865
aS'HLA-B27:08'
p1866
aS'HLA-B27:09'
p1867
aS'HLA-B27:10'
p1868
aS'HLA-B27:11'
p1869
aS'HLA-B27:12'
p1870
aS'HLA-B27:13'
p1871
aS'HLA-B27:14'
p1872
aS'HLA-B27:15'
p1873
aS'HLA-B27:16'
p1874
aS'HLA-B27:17'
p1875
aS'HLA-B27:18'
p1876
aS'HLA-B27:19'
p1877
aS'HLA-B27:20'
p1878
aS'HLA-B27:21'
p1879
aS'HLA-B27:23'
p1880
aS'HLA-B27:24'
p1881
aS'HLA-B27:25'
p1882
aS'HLA-B27:26'
p1883
aS'HLA-B27:27'
p1884
aS'HLA-B27:28'
p1885
aS'HLA-B27:29'
p1886
aS'HLA-B27:30'
p1887
aS'HLA-B27:31'
p1888
aS'HLA-B27:32'
p1889
aS'HLA-B27:33'
p1890
aS'HLA-B27:34'
p1891
aS'HLA-B27:35'
p1892
aS'HLA-B27:36'
p1893
aS'HLA-B27:37'
p1894
aS'HLA-B27:38'
p1895
aS'HLA-B27:39'
p1896
aS'HLA-B27:40'
p1897
aS'HLA-B27:41'
p1898
aS'HLA-B27:42'
p1899
aS'HLA-B27:43'
p1900
aS'HLA-B27:44'
p1901
aS'HLA-B27:45'
p1902
aS'HLA-B27:46'
p1903
aS'HLA-B27:47'
p1904
aS'HLA-B27:48'
p1905
aS'HLA-B27:49'
p1906
aS'HLA-B27:50'
p1907
aS'HLA-B27:51'
p1908
aS'HLA-B27:52'
p1909
aS'HLA-B27:53'
p1910
aS'HLA-B27:54'
p1911
aS'HLA-B27:55'
p1912
aS'HLA-B27:56'
p1913
aS'HLA-B27:57'
p1914
aS'HLA-B27:58'
p1915
aS'HLA-B27:60'
p1916
aS'HLA-B27:61'
p1917
aS'HLA-B27:62'
p1918
aS'HLA-B27:63'
p1919
aS'HLA-B27:67'
p1920
aS'HLA-B27:68'
p1921
aS'HLA-B27:69'
p1922
aS'HLA-B35:01'
p1923
aS'HLA-B35:02'
p1924
aS'HLA-B35:03'
p1925
aS'HLA-B35:04'
p1926
aS'HLA-B35:05'
p1927
aS'HLA-B35:06'
p1928
aS'HLA-B35:07'
p1929
aS'HLA-B35:08'
p1930
aS'HLA-B35:09'
p1931
aS'HLA-B35:10'
p1932
aS'HLA-B35:100'
p1933
aS'HLA-B35:101'
p1934
aS'HLA-B35:102'
p1935
aS'HLA-B35:103'
p1936
aS'HLA-B35:104'
p1937
aS'HLA-B35:105'
p1938
aS'HLA-B35:106'
p1939
aS'HLA-B35:107'
p1940
aS'HLA-B35:108'
p1941
aS'HLA-B35:109'
p1942
aS'HLA-B35:11'
p1943
aS'HLA-B35:110'
p1944
aS'HLA-B35:111'
p1945
aS'HLA-B35:112'
p1946
aS'HLA-B35:113'
p1947
aS'HLA-B35:114'
p1948
aS'HLA-B35:115'
p1949
aS'HLA-B35:116'
p1950
aS'HLA-B35:117'
p1951
aS'HLA-B35:118'
p1952
aS'HLA-B35:119'
p1953
aS'HLA-B35:12'
p1954
aS'HLA-B35:120'
p1955
aS'HLA-B35:121'
p1956
aS'HLA-B35:122'
p1957
aS'HLA-B35:123'
p1958
aS'HLA-B35:124'
p1959
aS'HLA-B35:125'
p1960
aS'HLA-B35:126'
p1961
aS'HLA-B35:127'
p1962
aS'HLA-B35:128'
p1963
aS'HLA-B35:13'
p1964
aS'HLA-B35:131'
p1965
aS'HLA-B35:132'
p1966
aS'HLA-B35:133'
p1967
aS'HLA-B35:135'
p1968
aS'HLA-B35:136'
p1969
aS'HLA-B35:137'
p1970
aS'HLA-B35:138'
p1971
aS'HLA-B35:139'
p1972
aS'HLA-B35:14'
p1973
aS'HLA-B35:140'
p1974
aS'HLA-B35:141'
p1975
aS'HLA-B35:142'
p1976
aS'HLA-B35:143'
p1977
aS'HLA-B35:144'
p1978
aS'HLA-B35:15'
p1979
aS'HLA-B35:16'
p1980
aS'HLA-B35:17'
p1981
aS'HLA-B35:18'
p1982
aS'HLA-B35:19'
p1983
aS'HLA-B35:20'
p1984
aS'HLA-B35:21'
p1985
aS'HLA-B35:22'
p1986
aS'HLA-B35:23'
p1987
aS'HLA-B35:24'
p1988
aS'HLA-B35:25'
p1989
aS'HLA-B35:26'
p1990
aS'HLA-B35:27'
p1991
aS'HLA-B35:28'
p1992
aS'HLA-B35:29'
p1993
aS'HLA-B35:30'
p1994
aS'HLA-B35:31'
p1995
aS'HLA-B35:32'
p1996
aS'HLA-B35:33'
p1997
aS'HLA-B35:34'
p1998
aS'HLA-B35:35'
p1999
aS'HLA-B35:36'
p2000
aS'HLA-B35:37'
p2001
aS'HLA-B35:38'
p2002
aS'HLA-B35:39'
p2003
aS'HLA-B35:41'
p2004
aS'HLA-B35:42'
p2005
aS'HLA-B35:43'
p2006
aS'HLA-B35:44'
p2007
aS'HLA-B35:45'
p2008
aS'HLA-B35:46'
p2009
aS'HLA-B35:47'
p2010
aS'HLA-B35:48'
p2011
aS'HLA-B35:49'
p2012
aS'HLA-B35:50'
p2013
aS'HLA-B35:51'
p2014
aS'HLA-B35:52'
p2015
aS'HLA-B35:54'
p2016
aS'HLA-B35:55'
p2017
aS'HLA-B35:56'
p2018
aS'HLA-B35:57'
p2019
aS'HLA-B35:58'
p2020
aS'HLA-B35:59'
p2021
aS'HLA-B35:60'
p2022
aS'HLA-B35:61'
p2023
aS'HLA-B35:62'
p2024
aS'HLA-B35:63'
p2025
aS'HLA-B35:64'
p2026
aS'HLA-B35:66'
p2027
aS'HLA-B35:67'
p2028
aS'HLA-B35:68'
p2029
aS'HLA-B35:69'
p2030
aS'HLA-B35:70'
p2031
aS'HLA-B35:71'
p2032
aS'HLA-B35:72'
p2033
aS'HLA-B35:74'
p2034
aS'HLA-B35:75'
p2035
aS'HLA-B35:76'
p2036
aS'HLA-B35:77'
p2037
aS'HLA-B35:78'
p2038
aS'HLA-B35:79'
p2039
aS'HLA-B35:80'
p2040
aS'HLA-B35:81'
p2041
aS'HLA-B35:82'
p2042
aS'HLA-B35:83'
p2043
aS'HLA-B35:84'
p2044
aS'HLA-B35:85'
p2045
aS'HLA-B35:86'
p2046
aS'HLA-B35:87'
p2047
aS'HLA-B35:88'
p2048
aS'HLA-B35:89'
p2049
aS'HLA-B35:90'
p2050
aS'HLA-B35:91'
p2051
aS'HLA-B35:92'
p2052
aS'HLA-B35:93'
p2053
aS'HLA-B35:94'
p2054
aS'HLA-B35:95'
p2055
aS'HLA-B35:96'
p2056
aS'HLA-B35:97'
p2057
aS'HLA-B35:98'
p2058
aS'HLA-B35:99'
p2059
aS'HLA-B37:01'
p2060
aS'HLA-B37:02'
p2061
aS'HLA-B37:04'
p2062
aS'HLA-B37:05'
p2063
aS'HLA-B37:06'
p2064
aS'HLA-B37:07'
p2065
aS'HLA-B37:08'
p2066
aS'HLA-B37:09'
p2067
aS'HLA-B37:10'
p2068
aS'HLA-B37:11'
p2069
aS'HLA-B37:12'
p2070
aS'HLA-B37:13'
p2071
aS'HLA-B37:14'
p2072
aS'HLA-B37:15'
p2073
aS'HLA-B37:17'
p2074
aS'HLA-B37:18'
p2075
aS'HLA-B37:19'
p2076
aS'HLA-B37:20'
p2077
aS'HLA-B37:21'
p2078
aS'HLA-B37:22'
p2079
aS'HLA-B37:23'
p2080
aS'HLA-B38:01'
p2081
aS'HLA-B38:02'
p2082
aS'HLA-B38:03'
p2083
aS'HLA-B38:04'
p2084
aS'HLA-B38:05'
p2085
aS'HLA-B38:06'
p2086
aS'HLA-B38:07'
p2087
aS'HLA-B38:08'
p2088
aS'HLA-B38:09'
p2089
aS'HLA-B38:10'
p2090
aS'HLA-B38:11'
p2091
aS'HLA-B38:12'
p2092
aS'HLA-B38:13'
p2093
aS'HLA-B38:14'
p2094
aS'HLA-B38:15'
p2095
aS'HLA-B38:16'
p2096
aS'HLA-B38:17'
p2097
aS'HLA-B38:18'
p2098
aS'HLA-B38:19'
p2099
aS'HLA-B38:20'
p2100
aS'HLA-B38:21'
p2101
aS'HLA-B38:22'
p2102
aS'HLA-B38:23'
p2103
aS'HLA-B39:01'
p2104
aS'HLA-B39:02'
p2105
aS'HLA-B39:03'
p2106
aS'HLA-B39:04'
p2107
aS'HLA-B39:05'
p2108
aS'HLA-B39:06'
p2109
aS'HLA-B39:07'
p2110
aS'HLA-B39:08'
p2111
aS'HLA-B39:09'
p2112
aS'HLA-B39:10'
p2113
aS'HLA-B39:11'
p2114
aS'HLA-B39:12'
p2115
aS'HLA-B39:13'
p2116
aS'HLA-B39:14'
p2117
aS'HLA-B39:15'
p2118
aS'HLA-B39:16'
p2119
aS'HLA-B39:17'
p2120
aS'HLA-B39:18'
p2121
aS'HLA-B39:19'
p2122
aS'HLA-B39:20'
p2123
aS'HLA-B39:22'
p2124
aS'HLA-B39:23'
p2125
aS'HLA-B39:24'
p2126
aS'HLA-B39:26'
p2127
aS'HLA-B39:27'
p2128
aS'HLA-B39:28'
p2129
aS'HLA-B39:29'
p2130
aS'HLA-B39:30'
p2131
aS'HLA-B39:31'
p2132
aS'HLA-B39:32'
p2133
aS'HLA-B39:33'
p2134
aS'HLA-B39:34'
p2135
aS'HLA-B39:35'
p2136
aS'HLA-B39:36'
p2137
aS'HLA-B39:37'
p2138
aS'HLA-B39:39'
p2139
aS'HLA-B39:41'
p2140
aS'HLA-B39:42'
p2141
aS'HLA-B39:43'
p2142
aS'HLA-B39:44'
p2143
aS'HLA-B39:45'
p2144
aS'HLA-B39:46'
p2145
aS'HLA-B39:47'
p2146
aS'HLA-B39:48'
p2147
aS'HLA-B39:49'
p2148
aS'HLA-B39:50'
p2149
aS'HLA-B39:51'
p2150
aS'HLA-B39:52'
p2151
aS'HLA-B39:53'
p2152
aS'HLA-B39:54'
p2153
aS'HLA-B39:55'
p2154
aS'HLA-B39:56'
p2155
aS'HLA-B39:57'
p2156
aS'HLA-B39:58'
p2157
aS'HLA-B39:59'
p2158
aS'HLA-B39:60'
p2159
aS'HLA-B40:01'
p2160
aS'HLA-B40:02'
p2161
aS'HLA-B40:03'
p2162
aS'HLA-B40:04'
p2163
aS'HLA-B40:05'
p2164
aS'HLA-B40:06'
p2165
aS'HLA-B40:07'
p2166
aS'HLA-B40:08'
p2167
aS'HLA-B40:09'
p2168
aS'HLA-B40:10'
p2169
aS'HLA-B40:100'
p2170
aS'HLA-B40:101'
p2171
aS'HLA-B40:102'
p2172
aS'HLA-B40:103'
p2173
aS'HLA-B40:104'
p2174
aS'HLA-B40:105'
p2175
aS'HLA-B40:106'
p2176
aS'HLA-B40:107'
p2177
aS'HLA-B40:108'
p2178
aS'HLA-B40:109'
p2179
aS'HLA-B40:11'
p2180
aS'HLA-B40:110'
p2181
aS'HLA-B40:111'
p2182
aS'HLA-B40:112'
p2183
aS'HLA-B40:113'
p2184
aS'HLA-B40:114'
p2185
aS'HLA-B40:115'
p2186
aS'HLA-B40:116'
p2187
aS'HLA-B40:117'
p2188
aS'HLA-B40:119'
p2189
aS'HLA-B40:12'
p2190
aS'HLA-B40:120'
p2191
aS'HLA-B40:121'
p2192
aS'HLA-B40:122'
p2193
aS'HLA-B40:123'
p2194
aS'HLA-B40:124'
p2195
aS'HLA-B40:125'
p2196
aS'HLA-B40:126'
p2197
aS'HLA-B40:127'
p2198
aS'HLA-B40:128'
p2199
aS'HLA-B40:129'
p2200
aS'HLA-B40:13'
p2201
aS'HLA-B40:130'
p2202
aS'HLA-B40:131'
p2203
aS'HLA-B40:132'
p2204
aS'HLA-B40:134'
p2205
aS'HLA-B40:135'
p2206
aS'HLA-B40:136'
p2207
aS'HLA-B40:137'
p2208
aS'HLA-B40:138'
p2209
aS'HLA-B40:139'
p2210
aS'HLA-B40:14'
p2211
aS'HLA-B40:140'
p2212
aS'HLA-B40:141'
p2213
aS'HLA-B40:143'
p2214
aS'HLA-B40:145'
p2215
aS'HLA-B40:146'
p2216
aS'HLA-B40:147'
p2217
aS'HLA-B40:15'
p2218
aS'HLA-B40:16'
p2219
aS'HLA-B40:18'
p2220
aS'HLA-B40:19'
p2221
aS'HLA-B40:20'
p2222
aS'HLA-B40:21'
p2223
aS'HLA-B40:23'
p2224
aS'HLA-B40:24'
p2225
aS'HLA-B40:25'
p2226
aS'HLA-B40:26'
p2227
aS'HLA-B40:27'
p2228
aS'HLA-B40:28'
p2229
aS'HLA-B40:29'
p2230
aS'HLA-B40:30'
p2231
aS'HLA-B40:31'
p2232
aS'HLA-B40:32'
p2233
aS'HLA-B40:33'
p2234
aS'HLA-B40:34'
p2235
aS'HLA-B40:35'
p2236
aS'HLA-B40:36'
p2237
aS'HLA-B40:37'
p2238
aS'HLA-B40:38'
p2239
aS'HLA-B40:39'
p2240
aS'HLA-B40:40'
p2241
aS'HLA-B40:42'
p2242
aS'HLA-B40:43'
p2243
aS'HLA-B40:44'
p2244
aS'HLA-B40:45'
p2245
aS'HLA-B40:46'
p2246
aS'HLA-B40:47'
p2247
aS'HLA-B40:48'
p2248
aS'HLA-B40:49'
p2249
aS'HLA-B40:50'
p2250
aS'HLA-B40:51'
p2251
aS'HLA-B40:52'
p2252
aS'HLA-B40:53'
p2253
aS'HLA-B40:54'
p2254
aS'HLA-B40:55'
p2255
aS'HLA-B40:56'
p2256
aS'HLA-B40:57'
p2257
aS'HLA-B40:58'
p2258
aS'HLA-B40:59'
p2259
aS'HLA-B40:60'
p2260
aS'HLA-B40:61'
p2261
aS'HLA-B40:62'
p2262
aS'HLA-B40:63'
p2263
aS'HLA-B40:64'
p2264
aS'HLA-B40:65'
p2265
aS'HLA-B40:66'
p2266
aS'HLA-B40:67'
p2267
aS'HLA-B40:68'
p2268
aS'HLA-B40:69'
p2269
aS'HLA-B40:70'
p2270
aS'HLA-B40:71'
p2271
aS'HLA-B40:72'
p2272
aS'HLA-B40:73'
p2273
aS'HLA-B40:74'
p2274
aS'HLA-B40:75'
p2275
aS'HLA-B40:76'
p2276
aS'HLA-B40:77'
p2277
aS'HLA-B40:78'
p2278
aS'HLA-B40:79'
p2279
aS'HLA-B40:80'
p2280
aS'HLA-B40:81'
p2281
aS'HLA-B40:82'
p2282
aS'HLA-B40:83'
p2283
aS'HLA-B40:84'
p2284
aS'HLA-B40:85'
p2285
aS'HLA-B40:86'
p2286
aS'HLA-B40:87'
p2287
aS'HLA-B40:88'
p2288
aS'HLA-B40:89'
p2289
aS'HLA-B40:90'
p2290
aS'HLA-B40:91'
p2291
aS'HLA-B40:92'
p2292
aS'HLA-B40:93'
p2293
aS'HLA-B40:94'
p2294
aS'HLA-B40:95'
p2295
aS'HLA-B40:96'
p2296
aS'HLA-B40:97'
p2297
aS'HLA-B40:98'
p2298
aS'HLA-B40:99'
p2299
aS'HLA-B41:01'
p2300
aS'HLA-B41:02'
p2301
aS'HLA-B41:03'
p2302
aS'HLA-B41:04'
p2303
aS'HLA-B41:05'
p2304
aS'HLA-B41:06'
p2305
aS'HLA-B41:07'
p2306
aS'HLA-B41:08'
p2307
aS'HLA-B41:09'
p2308
aS'HLA-B41:10'
p2309
aS'HLA-B41:11'
p2310
aS'HLA-B41:12'
p2311
aS'HLA-B42:01'
p2312
aS'HLA-B42:02'
p2313
aS'HLA-B42:04'
p2314
aS'HLA-B42:05'
p2315
aS'HLA-B42:06'
p2316
aS'HLA-B42:07'
p2317
aS'HLA-B42:08'
p2318
aS'HLA-B42:09'
p2319
aS'HLA-B42:10'
p2320
aS'HLA-B42:11'
p2321
aS'HLA-B42:12'
p2322
aS'HLA-B42:13'
p2323
aS'HLA-B42:14'
p2324
aS'HLA-B44:02'
p2325
aS'HLA-B44:03'
p2326
aS'HLA-B44:04'
p2327
aS'HLA-B44:05'
p2328
aS'HLA-B44:06'
p2329
aS'HLA-B44:07'
p2330
aS'HLA-B44:08'
p2331
aS'HLA-B44:09'
p2332
aS'HLA-B44:10'
p2333
aS'HLA-B44:100'
p2334
aS'HLA-B44:101'
p2335
aS'HLA-B44:102'
p2336
aS'HLA-B44:103'
p2337
aS'HLA-B44:104'
p2338
aS'HLA-B44:105'
p2339
aS'HLA-B44:106'
p2340
aS'HLA-B44:107'
p2341
aS'HLA-B44:109'
p2342
aS'HLA-B44:11'
p2343
aS'HLA-B44:110'
p2344
aS'HLA-B44:12'
p2345
aS'HLA-B44:13'
p2346
aS'HLA-B44:14'
p2347
aS'HLA-B44:15'
p2348
aS'HLA-B44:16'
p2349
aS'HLA-B44:17'
p2350
aS'HLA-B44:18'
p2351
aS'HLA-B44:20'
p2352
aS'HLA-B44:21'
p2353
aS'HLA-B44:22'
p2354
aS'HLA-B44:24'
p2355
aS'HLA-B44:25'
p2356
aS'HLA-B44:26'
p2357
aS'HLA-B44:27'
p2358
aS'HLA-B44:28'
p2359
aS'HLA-B44:29'
p2360
aS'HLA-B44:30'
p2361
aS'HLA-B44:31'
p2362
aS'HLA-B44:32'
p2363
aS'HLA-B44:33'
p2364
aS'HLA-B44:34'
p2365
aS'HLA-B44:35'
p2366
aS'HLA-B44:36'
p2367
aS'HLA-B44:37'
p2368
aS'HLA-B44:38'
p2369
aS'HLA-B44:39'
p2370
aS'HLA-B44:40'
p2371
aS'HLA-B44:41'
p2372
aS'HLA-B44:42'
p2373
aS'HLA-B44:43'
p2374
aS'HLA-B44:44'
p2375
aS'HLA-B44:45'
p2376
aS'HLA-B44:46'
p2377
aS'HLA-B44:47'
p2378
aS'HLA-B44:48'
p2379
aS'HLA-B44:49'
p2380
aS'HLA-B44:50'
p2381
aS'HLA-B44:51'
p2382
aS'HLA-B44:53'
p2383
aS'HLA-B44:54'
p2384
aS'HLA-B44:55'
p2385
aS'HLA-B44:57'
p2386
aS'HLA-B44:59'
p2387
aS'HLA-B44:60'
p2388
aS'HLA-B44:62'
p2389
aS'HLA-B44:63'
p2390
aS'HLA-B44:64'
p2391
aS'HLA-B44:65'
p2392
aS'HLA-B44:66'
p2393
aS'HLA-B44:67'
p2394
aS'HLA-B44:68'
p2395
aS'HLA-B44:69'
p2396
aS'HLA-B44:70'
p2397
aS'HLA-B44:71'
p2398
aS'HLA-B44:72'
p2399
aS'HLA-B44:73'
p2400
aS'HLA-B44:74'
p2401
aS'HLA-B44:75'
p2402
aS'HLA-B44:76'
p2403
aS'HLA-B44:77'
p2404
aS'HLA-B44:78'
p2405
aS'HLA-B44:79'
p2406
aS'HLA-B44:80'
p2407
aS'HLA-B44:81'
p2408
aS'HLA-B44:82'
p2409
aS'HLA-B44:83'
p2410
aS'HLA-B44:84'
p2411
aS'HLA-B44:85'
p2412
aS'HLA-B44:86'
p2413
aS'HLA-B44:87'
p2414
aS'HLA-B44:88'
p2415
aS'HLA-B44:89'
p2416
aS'HLA-B44:90'
p2417
aS'HLA-B44:91'
p2418
aS'HLA-B44:92'
p2419
aS'HLA-B44:93'
p2420
aS'HLA-B44:94'
p2421
aS'HLA-B44:95'
p2422
aS'HLA-B44:96'
p2423
aS'HLA-B44:97'
p2424
aS'HLA-B44:98'
p2425
aS'HLA-B44:99'
p2426
aS'HLA-B45:01'
p2427
aS'HLA-B45:02'
p2428
aS'HLA-B45:03'
p2429
aS'HLA-B45:04'
p2430
aS'HLA-B45:05'
p2431
aS'HLA-B45:06'
p2432
aS'HLA-B45:07'
p2433
aS'HLA-B45:08'
p2434
aS'HLA-B45:09'
p2435
aS'HLA-B45:10'
p2436
aS'HLA-B45:11'
p2437
aS'HLA-B45:12'
p2438
aS'HLA-B46:01'
p2439
aS'HLA-B46:02'
p2440
aS'HLA-B46:03'
p2441
aS'HLA-B46:04'
p2442
aS'HLA-B46:05'
p2443
aS'HLA-B46:06'
p2444
aS'HLA-B46:08'
p2445
aS'HLA-B46:09'
p2446
aS'HLA-B46:10'
p2447
aS'HLA-B46:11'
p2448
aS'HLA-B46:12'
p2449
aS'HLA-B46:13'
p2450
aS'HLA-B46:14'
p2451
aS'HLA-B46:16'
p2452
aS'HLA-B46:17'
p2453
aS'HLA-B46:18'
p2454
aS'HLA-B46:19'
p2455
aS'HLA-B46:20'
p2456
aS'HLA-B46:21'
p2457
aS'HLA-B46:22'
p2458
aS'HLA-B46:23'
p2459
aS'HLA-B46:24'
p2460
aS'HLA-B47:01'
p2461
aS'HLA-B47:02'
p2462
aS'HLA-B47:03'
p2463
aS'HLA-B47:04'
p2464
aS'HLA-B47:05'
p2465
aS'HLA-B47:06'
p2466
aS'HLA-B47:07'
p2467
aS'HLA-B48:01'
p2468
aS'HLA-B48:02'
p2469
aS'HLA-B48:03'
p2470
aS'HLA-B48:04'
p2471
aS'HLA-B48:05'
p2472
aS'HLA-B48:06'
p2473
aS'HLA-B48:07'
p2474
aS'HLA-B48:08'
p2475
aS'HLA-B48:09'
p2476
aS'HLA-B48:10'
p2477
aS'HLA-B48:11'
p2478
aS'HLA-B48:12'
p2479
aS'HLA-B48:13'
p2480
aS'HLA-B48:14'
p2481
aS'HLA-B48:15'
p2482
aS'HLA-B48:16'
p2483
aS'HLA-B48:17'
p2484
aS'HLA-B48:18'
p2485
aS'HLA-B48:19'
p2486
aS'HLA-B48:20'
p2487
aS'HLA-B48:21'
p2488
aS'HLA-B48:22'
p2489
aS'HLA-B48:23'
p2490
aS'HLA-B49:01'
p2491
aS'HLA-B49:02'
p2492
aS'HLA-B49:03'
p2493
aS'HLA-B49:04'
p2494
aS'HLA-B49:05'
p2495
aS'HLA-B49:06'
p2496
aS'HLA-B49:07'
p2497
aS'HLA-B49:08'
p2498
aS'HLA-B49:09'
p2499
aS'HLA-B49:10'
p2500
aS'HLA-B50:01'
p2501
aS'HLA-B50:02'
p2502
aS'HLA-B50:04'
p2503
aS'HLA-B50:05'
p2504
aS'HLA-B50:06'
p2505
aS'HLA-B50:07'
p2506
aS'HLA-B50:08'
p2507
aS'HLA-B50:09'
p2508
aS'HLA-B51:01'
p2509
aS'HLA-B51:02'
p2510
aS'HLA-B51:03'
p2511
aS'HLA-B51:04'
p2512
aS'HLA-B51:05'
p2513
aS'HLA-B51:06'
p2514
aS'HLA-B51:07'
p2515
aS'HLA-B51:08'
p2516
aS'HLA-B51:09'
p2517
aS'HLA-B51:12'
p2518
aS'HLA-B51:13'
p2519
aS'HLA-B51:14'
p2520
aS'HLA-B51:15'
p2521
aS'HLA-B51:16'
p2522
aS'HLA-B51:17'
p2523
aS'HLA-B51:18'
p2524
aS'HLA-B51:19'
p2525
aS'HLA-B51:20'
p2526
aS'HLA-B51:21'
p2527
aS'HLA-B51:22'
p2528
aS'HLA-B51:23'
p2529
aS'HLA-B51:24'
p2530
aS'HLA-B51:26'
p2531
aS'HLA-B51:28'
p2532
aS'HLA-B51:29'
p2533
aS'HLA-B51:30'
p2534
aS'HLA-B51:31'
p2535
aS'HLA-B51:32'
p2536
aS'HLA-B51:33'
p2537
aS'HLA-B51:34'
p2538
aS'HLA-B51:35'
p2539
aS'HLA-B51:36'
p2540
aS'HLA-B51:37'
p2541
aS'HLA-B51:38'
p2542
aS'HLA-B51:39'
p2543
aS'HLA-B51:40'
p2544
aS'HLA-B51:42'
p2545
aS'HLA-B51:43'
p2546
aS'HLA-B51:45'
p2547
aS'HLA-B51:46'
p2548
aS'HLA-B51:48'
p2549
aS'HLA-B51:49'
p2550
aS'HLA-B51:50'
p2551
aS'HLA-B51:51'
p2552
aS'HLA-B51:52'
p2553
aS'HLA-B51:53'
p2554
aS'HLA-B51:54'
p2555
aS'HLA-B51:55'
p2556
aS'HLA-B51:56'
p2557
aS'HLA-B51:57'
p2558
aS'HLA-B51:58'
p2559
aS'HLA-B51:59'
p2560
aS'HLA-B51:60'
p2561
aS'HLA-B51:61'
p2562
aS'HLA-B51:62'
p2563
aS'HLA-B51:63'
p2564
aS'HLA-B51:64'
p2565
aS'HLA-B51:65'
p2566
aS'HLA-B51:66'
p2567
aS'HLA-B51:67'
p2568
aS'HLA-B51:68'
p2569
aS'HLA-B51:69'
p2570
aS'HLA-B51:70'
p2571
aS'HLA-B51:71'
p2572
aS'HLA-B51:72'
p2573
aS'HLA-B51:73'
p2574
aS'HLA-B51:74'
p2575
aS'HLA-B51:75'
p2576
aS'HLA-B51:76'
p2577
aS'HLA-B51:77'
p2578
aS'HLA-B51:78'
p2579
aS'HLA-B51:79'
p2580
aS'HLA-B51:80'
p2581
aS'HLA-B51:81'
p2582
aS'HLA-B51:82'
p2583
aS'HLA-B51:83'
p2584
aS'HLA-B51:84'
p2585
aS'HLA-B51:85'
p2586
aS'HLA-B51:86'
p2587
aS'HLA-B51:87'
p2588
aS'HLA-B51:88'
p2589
aS'HLA-B51:89'
p2590
aS'HLA-B51:90'
p2591
aS'HLA-B51:91'
p2592
aS'HLA-B51:92'
p2593
aS'HLA-B51:93'
p2594
aS'HLA-B51:94'
p2595
aS'HLA-B51:95'
p2596
aS'HLA-B51:96'
p2597
aS'HLA-B52:01'
p2598
aS'HLA-B52:02'
p2599
aS'HLA-B52:03'
p2600
aS'HLA-B52:04'
p2601
aS'HLA-B52:05'
p2602
aS'HLA-B52:06'
p2603
aS'HLA-B52:07'
p2604
aS'HLA-B52:08'
p2605
aS'HLA-B52:09'
p2606
aS'HLA-B52:10'
p2607
aS'HLA-B52:11'
p2608
aS'HLA-B52:12'
p2609
aS'HLA-B52:13'
p2610
aS'HLA-B52:14'
p2611
aS'HLA-B52:15'
p2612
aS'HLA-B52:16'
p2613
aS'HLA-B52:17'
p2614
aS'HLA-B52:18'
p2615
aS'HLA-B52:19'
p2616
aS'HLA-B52:20'
p2617
aS'HLA-B52:21'
p2618
aS'HLA-B53:01'
p2619
aS'HLA-B53:02'
p2620
aS'HLA-B53:03'
p2621
aS'HLA-B53:04'
p2622
aS'HLA-B53:05'
p2623
aS'HLA-B53:06'
p2624
aS'HLA-B53:07'
p2625
aS'HLA-B53:08'
p2626
aS'HLA-B53:09'
p2627
aS'HLA-B53:10'
p2628
aS'HLA-B53:11'
p2629
aS'HLA-B53:12'
p2630
aS'HLA-B53:13'
p2631
aS'HLA-B53:14'
p2632
aS'HLA-B53:15'
p2633
aS'HLA-B53:16'
p2634
aS'HLA-B53:17'
p2635
aS'HLA-B53:18'
p2636
aS'HLA-B53:19'
p2637
aS'HLA-B53:20'
p2638
aS'HLA-B53:21'
p2639
aS'HLA-B53:22'
p2640
aS'HLA-B53:23'
p2641
aS'HLA-B54:01'
p2642
aS'HLA-B54:02'
p2643
aS'HLA-B54:03'
p2644
aS'HLA-B54:04'
p2645
aS'HLA-B54:06'
p2646
aS'HLA-B54:07'
p2647
aS'HLA-B54:09'
p2648
aS'HLA-B54:10'
p2649
aS'HLA-B54:11'
p2650
aS'HLA-B54:12'
p2651
aS'HLA-B54:13'
p2652
aS'HLA-B54:14'
p2653
aS'HLA-B54:15'
p2654
aS'HLA-B54:16'
p2655
aS'HLA-B54:17'
p2656
aS'HLA-B54:18'
p2657
aS'HLA-B54:19'
p2658
aS'HLA-B54:20'
p2659
aS'HLA-B54:21'
p2660
aS'HLA-B54:22'
p2661
aS'HLA-B54:23'
p2662
aS'HLA-B55:01'
p2663
aS'HLA-B55:02'
p2664
aS'HLA-B55:03'
p2665
aS'HLA-B55:04'
p2666
aS'HLA-B55:05'
p2667
aS'HLA-B55:07'
p2668
aS'HLA-B55:08'
p2669
aS'HLA-B55:09'
p2670
aS'HLA-B55:10'
p2671
aS'HLA-B55:11'
p2672
aS'HLA-B55:12'
p2673
aS'HLA-B55:13'
p2674
aS'HLA-B55:14'
p2675
aS'HLA-B55:15'
p2676
aS'HLA-B55:16'
p2677
aS'HLA-B55:17'
p2678
aS'HLA-B55:18'
p2679
aS'HLA-B55:19'
p2680
aS'HLA-B55:20'
p2681
aS'HLA-B55:21'
p2682
aS'HLA-B55:22'
p2683
aS'HLA-B55:23'
p2684
aS'HLA-B55:24'
p2685
aS'HLA-B55:25'
p2686
aS'HLA-B55:26'
p2687
aS'HLA-B55:27'
p2688
aS'HLA-B55:28'
p2689
aS'HLA-B55:29'
p2690
aS'HLA-B55:30'
p2691
aS'HLA-B55:31'
p2692
aS'HLA-B55:32'
p2693
aS'HLA-B55:33'
p2694
aS'HLA-B55:34'
p2695
aS'HLA-B55:35'
p2696
aS'HLA-B55:36'
p2697
aS'HLA-B55:37'
p2698
aS'HLA-B55:38'
p2699
aS'HLA-B55:39'
p2700
aS'HLA-B55:40'
p2701
aS'HLA-B55:41'
p2702
aS'HLA-B55:42'
p2703
aS'HLA-B55:43'
p2704
aS'HLA-B56:01'
p2705
aS'HLA-B56:02'
p2706
aS'HLA-B56:03'
p2707
aS'HLA-B56:04'
p2708
aS'HLA-B56:05'
p2709
aS'HLA-B56:06'
p2710
aS'HLA-B56:07'
p2711
aS'HLA-B56:08'
p2712
aS'HLA-B56:09'
p2713
aS'HLA-B56:10'
p2714
aS'HLA-B56:11'
p2715
aS'HLA-B56:12'
p2716
aS'HLA-B56:13'
p2717
aS'HLA-B56:14'
p2718
aS'HLA-B56:15'
p2719
aS'HLA-B56:16'
p2720
aS'HLA-B56:17'
p2721
aS'HLA-B56:18'
p2722
aS'HLA-B56:20'
p2723
aS'HLA-B56:21'
p2724
aS'HLA-B56:22'
p2725
aS'HLA-B56:23'
p2726
aS'HLA-B56:24'
p2727
aS'HLA-B56:25'
p2728
aS'HLA-B56:26'
p2729
aS'HLA-B56:27'
p2730
aS'HLA-B56:29'
p2731
aS'HLA-B57:01'
p2732
aS'HLA-B57:02'
p2733
aS'HLA-B57:03'
p2734
aS'HLA-B57:04'
p2735
aS'HLA-B57:05'
p2736
aS'HLA-B57:06'
p2737
aS'HLA-B57:07'
p2738
aS'HLA-B57:08'
p2739
aS'HLA-B57:09'
p2740
aS'HLA-B57:10'
p2741
aS'HLA-B57:11'
p2742
aS'HLA-B57:12'
p2743
aS'HLA-B57:13'
p2744
aS'HLA-B57:14'
p2745
aS'HLA-B57:15'
p2746
aS'HLA-B57:16'
p2747
aS'HLA-B57:17'
p2748
aS'HLA-B57:18'
p2749
aS'HLA-B57:19'
p2750
aS'HLA-B57:20'
p2751
aS'HLA-B57:21'
p2752
aS'HLA-B57:22'
p2753
aS'HLA-B57:23'
p2754
aS'HLA-B57:24'
p2755
aS'HLA-B57:25'
p2756
aS'HLA-B57:26'
p2757
aS'HLA-B57:27'
p2758
aS'HLA-B57:29'
p2759
aS'HLA-B57:30'
p2760
aS'HLA-B57:31'
p2761
aS'HLA-B57:32'
p2762
aS'HLA-B58:01'
p2763
aS'HLA-B58:02'
p2764
aS'HLA-B58:04'
p2765
aS'HLA-B58:05'
p2766
aS'HLA-B58:06'
p2767
aS'HLA-B58:07'
p2768
aS'HLA-B58:08'
p2769
aS'HLA-B58:09'
p2770
aS'HLA-B58:11'
p2771
aS'HLA-B58:12'
p2772
aS'HLA-B58:13'
p2773
aS'HLA-B58:14'
p2774
aS'HLA-B58:15'
p2775
aS'HLA-B58:16'
p2776
aS'HLA-B58:18'
p2777
aS'HLA-B58:19'
p2778
aS'HLA-B58:20'
p2779
aS'HLA-B58:21'
p2780
aS'HLA-B58:22'
p2781
aS'HLA-B58:23'
p2782
aS'HLA-B58:24'
p2783
aS'HLA-B58:25'
p2784
aS'HLA-B58:26'
p2785
aS'HLA-B58:27'
p2786
aS'HLA-B58:28'
p2787
aS'HLA-B58:29'
p2788
aS'HLA-B58:30'
p2789
aS'HLA-B59:01'
p2790
aS'HLA-B59:02'
p2791
aS'HLA-B59:03'
p2792
aS'HLA-B59:04'
p2793
aS'HLA-B59:05'
p2794
aS'HLA-B67:01'
p2795
aS'HLA-B67:02'
p2796
aS'HLA-B73:01'
p2797
aS'HLA-B73:02'
p2798
aS'HLA-B78:01'
p2799
aS'HLA-B78:02'
p2800
aS'HLA-B78:03'
p2801
aS'HLA-B78:04'
p2802
aS'HLA-B78:05'
p2803
aS'HLA-B78:06'
p2804
aS'HLA-B78:07'
p2805
aS'HLA-B81:01'
p2806
aS'HLA-B81:02'
p2807
aS'HLA-B81:03'
p2808
aS'HLA-B81:05'
p2809
aS'HLA-B82:01'
p2810
aS'HLA-B82:02'
p2811
aS'HLA-B82:03'
p2812
aS'HLA-B83:01'
p2813
aS'HLA-C01:02'
p2814
aS'HLA-C01:03'
p2815
aS'HLA-C01:04'
p2816
aS'HLA-C01:05'
p2817
aS'HLA-C01:06'
p2818
aS'HLA-C01:07'
p2819
aS'HLA-C01:08'
p2820
aS'HLA-C01:09'
p2821
aS'HLA-C01:10'
p2822
aS'HLA-C01:11'
p2823
aS'HLA-C01:12'
p2824
aS'HLA-C01:13'
p2825
aS'HLA-C01:14'
p2826
aS'HLA-C01:15'
p2827
aS'HLA-C01:16'
p2828
aS'HLA-C01:17'
p2829
aS'HLA-C01:18'
p2830
aS'HLA-C01:19'
p2831
aS'HLA-C01:20'
p2832
aS'HLA-C01:21'
p2833
aS'HLA-C01:22'
p2834
aS'HLA-C01:23'
p2835
aS'HLA-C01:24'
p2836
aS'HLA-C01:25'
p2837
aS'HLA-C01:26'
p2838
aS'HLA-C01:27'
p2839
aS'HLA-C01:28'
p2840
aS'HLA-C01:29'
p2841
aS'HLA-C01:30'
p2842
aS'HLA-C01:31'
p2843
aS'HLA-C01:32'
p2844
aS'HLA-C01:33'
p2845
aS'HLA-C01:34'
p2846
aS'HLA-C01:35'
p2847
aS'HLA-C01:36'
p2848
aS'HLA-C01:38'
p2849
aS'HLA-C01:39'
p2850
aS'HLA-C01:40'
p2851
aS'HLA-C02:02'
p2852
aS'HLA-C02:03'
p2853
aS'HLA-C02:04'
p2854
aS'HLA-C02:05'
p2855
aS'HLA-C02:06'
p2856
aS'HLA-C02:07'
p2857
aS'HLA-C02:08'
p2858
aS'HLA-C02:09'
p2859
aS'HLA-C02:10'
p2860
aS'HLA-C02:11'
p2861
aS'HLA-C02:12'
p2862
aS'HLA-C02:13'
p2863
aS'HLA-C02:14'
p2864
aS'HLA-C02:15'
p2865
aS'HLA-C02:16'
p2866
aS'HLA-C02:17'
p2867
aS'HLA-C02:18'
p2868
aS'HLA-C02:19'
p2869
aS'HLA-C02:20'
p2870
aS'HLA-C02:21'
p2871
aS'HLA-C02:22'
p2872
aS'HLA-C02:23'
p2873
aS'HLA-C02:24'
p2874
aS'HLA-C02:26'
p2875
aS'HLA-C02:27'
p2876
aS'HLA-C02:28'
p2877
aS'HLA-C02:29'
p2878
aS'HLA-C02:30'
p2879
aS'HLA-C02:31'
p2880
aS'HLA-C02:32'
p2881
aS'HLA-C02:33'
p2882
aS'HLA-C02:34'
p2883
aS'HLA-C02:35'
p2884
aS'HLA-C02:36'
p2885
aS'HLA-C02:37'
p2886
aS'HLA-C02:39'
p2887
aS'HLA-C02:40'
p2888
aS'HLA-C03:01'
p2889
aS'HLA-C03:02'
p2890
aS'HLA-C03:03'
p2891
aS'HLA-C03:04'
p2892
aS'HLA-C03:05'
p2893
aS'HLA-C03:06'
p2894
aS'HLA-C03:07'
p2895
aS'HLA-C03:08'
p2896
aS'HLA-C03:09'
p2897
aS'HLA-C03:10'
p2898
aS'HLA-C03:11'
p2899
aS'HLA-C03:12'
p2900
aS'HLA-C03:13'
p2901
aS'HLA-C03:14'
p2902
aS'HLA-C03:15'
p2903
aS'HLA-C03:16'
p2904
aS'HLA-C03:17'
p2905
aS'HLA-C03:18'
p2906
aS'HLA-C03:19'
p2907
aS'HLA-C03:21'
p2908
aS'HLA-C03:23'
p2909
aS'HLA-C03:24'
p2910
aS'HLA-C03:25'
p2911
aS'HLA-C03:26'
p2912
aS'HLA-C03:27'
p2913
aS'HLA-C03:28'
p2914
aS'HLA-C03:29'
p2915
aS'HLA-C03:30'
p2916
aS'HLA-C03:31'
p2917
aS'HLA-C03:32'
p2918
aS'HLA-C03:33'
p2919
aS'HLA-C03:34'
p2920
aS'HLA-C03:35'
p2921
aS'HLA-C03:36'
p2922
aS'HLA-C03:37'
p2923
aS'HLA-C03:38'
p2924
aS'HLA-C03:39'
p2925
aS'HLA-C03:40'
p2926
aS'HLA-C03:41'
p2927
aS'HLA-C03:42'
p2928
aS'HLA-C03:43'
p2929
aS'HLA-C03:44'
p2930
aS'HLA-C03:45'
p2931
aS'HLA-C03:46'
p2932
aS'HLA-C03:47'
p2933
aS'HLA-C03:48'
p2934
aS'HLA-C03:49'
p2935
aS'HLA-C03:50'
p2936
aS'HLA-C03:51'
p2937
aS'HLA-C03:52'
p2938
aS'HLA-C03:53'
p2939
aS'HLA-C03:54'
p2940
aS'HLA-C03:55'
p2941
aS'HLA-C03:56'
p2942
aS'HLA-C03:57'
p2943
aS'HLA-C03:58'
p2944
aS'HLA-C03:59'
p2945
aS'HLA-C03:60'
p2946
aS'HLA-C03:61'
p2947
aS'HLA-C03:62'
p2948
aS'HLA-C03:63'
p2949
aS'HLA-C03:64'
p2950
aS'HLA-C03:65'
p2951
aS'HLA-C03:66'
p2952
aS'HLA-C03:67'
p2953
aS'HLA-C03:68'
p2954
aS'HLA-C03:69'
p2955
aS'HLA-C03:70'
p2956
aS'HLA-C03:71'
p2957
aS'HLA-C03:72'
p2958
aS'HLA-C03:73'
p2959
aS'HLA-C03:74'
p2960
aS'HLA-C03:75'
p2961
aS'HLA-C03:76'
p2962
aS'HLA-C03:77'
p2963
aS'HLA-C03:78'
p2964
aS'HLA-C03:79'
p2965
aS'HLA-C03:80'
p2966
aS'HLA-C03:81'
p2967
aS'HLA-C03:82'
p2968
aS'HLA-C03:83'
p2969
aS'HLA-C03:84'
p2970
aS'HLA-C03:85'
p2971
aS'HLA-C03:86'
p2972
aS'HLA-C03:87'
p2973
aS'HLA-C03:88'
p2974
aS'HLA-C03:89'
p2975
aS'HLA-C03:90'
p2976
aS'HLA-C03:91'
p2977
aS'HLA-C03:92'
p2978
aS'HLA-C03:93'
p2979
aS'HLA-C03:94'
p2980
aS'HLA-C04:01'
p2981
aS'HLA-C04:03'
p2982
aS'HLA-C04:04'
p2983
aS'HLA-C04:05'
p2984
aS'HLA-C04:06'
p2985
aS'HLA-C04:07'
p2986
aS'HLA-C04:08'
p2987
aS'HLA-C04:10'
p2988
aS'HLA-C04:11'
p2989
aS'HLA-C04:12'
p2990
aS'HLA-C04:13'
p2991
aS'HLA-C04:14'
p2992
aS'HLA-C04:15'
p2993
aS'HLA-C04:16'
p2994
aS'HLA-C04:17'
p2995
aS'HLA-C04:18'
p2996
aS'HLA-C04:19'
p2997
aS'HLA-C04:20'
p2998
aS'HLA-C04:23'
p2999
aS'HLA-C04:24'
p3000
aS'HLA-C04:25'
p3001
aS'HLA-C04:26'
p3002
aS'HLA-C04:27'
p3003
aS'HLA-C04:28'
p3004
aS'HLA-C04:29'
p3005
aS'HLA-C04:30'
p3006
aS'HLA-C04:31'
p3007
aS'HLA-C04:32'
p3008
aS'HLA-C04:33'
p3009
aS'HLA-C04:34'
p3010
aS'HLA-C04:35'
p3011
aS'HLA-C04:36'
p3012
aS'HLA-C04:37'
p3013
aS'HLA-C04:38'
p3014
aS'HLA-C04:39'
p3015
aS'HLA-C04:40'
p3016
aS'HLA-C04:41'
p3017
aS'HLA-C04:42'
p3018
aS'HLA-C04:43'
p3019
aS'HLA-C04:44'
p3020
aS'HLA-C04:45'
p3021
aS'HLA-C04:46'
p3022
aS'HLA-C04:47'
p3023
aS'HLA-C04:48'
p3024
aS'HLA-C04:49'
p3025
aS'HLA-C04:50'
p3026
aS'HLA-C04:51'
p3027
aS'HLA-C04:52'
p3028
aS'HLA-C04:53'
p3029
aS'HLA-C04:54'
p3030
aS'HLA-C04:55'
p3031
aS'HLA-C04:56'
p3032
aS'HLA-C04:57'
p3033
aS'HLA-C04:58'
p3034
aS'HLA-C04:60'
p3035
aS'HLA-C04:61'
p3036
aS'HLA-C04:62'
p3037
aS'HLA-C04:63'
p3038
aS'HLA-C04:64'
p3039
aS'HLA-C04:65'
p3040
aS'HLA-C04:66'
p3041
aS'HLA-C04:67'
p3042
aS'HLA-C04:68'
p3043
aS'HLA-C04:69'
p3044
aS'HLA-C04:70'
p3045
aS'HLA-C05:01'
p3046
aS'HLA-C05:03'
p3047
aS'HLA-C05:04'
p3048
aS'HLA-C05:05'
p3049
aS'HLA-C05:06'
p3050
aS'HLA-C05:08'
p3051
aS'HLA-C05:09'
p3052
aS'HLA-C05:10'
p3053
aS'HLA-C05:11'
p3054
aS'HLA-C05:12'
p3055
aS'HLA-C05:13'
p3056
aS'HLA-C05:14'
p3057
aS'HLA-C05:15'
p3058
aS'HLA-C05:16'
p3059
aS'HLA-C05:17'
p3060
aS'HLA-C05:18'
p3061
aS'HLA-C05:19'
p3062
aS'HLA-C05:20'
p3063
aS'HLA-C05:21'
p3064
aS'HLA-C05:22'
p3065
aS'HLA-C05:23'
p3066
aS'HLA-C05:24'
p3067
aS'HLA-C05:25'
p3068
aS'HLA-C05:26'
p3069
aS'HLA-C05:27'
p3070
aS'HLA-C05:28'
p3071
aS'HLA-C05:29'
p3072
aS'HLA-C05:30'
p3073
aS'HLA-C05:31'
p3074
aS'HLA-C05:32'
p3075
aS'HLA-C05:33'
p3076
aS'HLA-C05:34'
p3077
aS'HLA-C05:35'
p3078
aS'HLA-C05:36'
p3079
aS'HLA-C05:37'
p3080
aS'HLA-C05:38'
p3081
aS'HLA-C05:39'
p3082
aS'HLA-C05:40'
p3083
aS'HLA-C05:41'
p3084
aS'HLA-C05:42'
p3085
aS'HLA-C05:43'
p3086
aS'HLA-C05:44'
p3087
aS'HLA-C05:45'
p3088
aS'HLA-C06:02'
p3089
aS'HLA-C06:03'
p3090
aS'HLA-C06:04'
p3091
aS'HLA-C06:05'
p3092
aS'HLA-C06:06'
p3093
aS'HLA-C06:07'
p3094
aS'HLA-C06:08'
p3095
aS'HLA-C06:09'
p3096
aS'HLA-C06:10'
p3097
aS'HLA-C06:11'
p3098
aS'HLA-C06:12'
p3099
aS'HLA-C06:13'
p3100
aS'HLA-C06:14'
p3101
aS'HLA-C06:15'
p3102
aS'HLA-C06:17'
p3103
aS'HLA-C06:18'
p3104
aS'HLA-C06:19'
p3105
aS'HLA-C06:20'
p3106
aS'HLA-C06:21'
p3107
aS'HLA-C06:22'
p3108
aS'HLA-C06:23'
p3109
aS'HLA-C06:24'
p3110
aS'HLA-C06:25'
p3111
aS'HLA-C06:26'
p3112
aS'HLA-C06:27'
p3113
aS'HLA-C06:28'
p3114
aS'HLA-C06:29'
p3115
aS'HLA-C06:30'
p3116
aS'HLA-C06:31'
p3117
aS'HLA-C06:32'
p3118
aS'HLA-C06:33'
p3119
aS'HLA-C06:34'
p3120
aS'HLA-C06:35'
p3121
aS'HLA-C06:36'
p3122
aS'HLA-C06:37'
p3123
aS'HLA-C06:38'
p3124
aS'HLA-C06:39'
p3125
aS'HLA-C06:40'
p3126
aS'HLA-C06:41'
p3127
aS'HLA-C06:42'
p3128
aS'HLA-C06:43'
p3129
aS'HLA-C06:44'
p3130
aS'HLA-C06:45'
p3131
aS'HLA-C07:01'
p3132
aS'HLA-C07:02'
p3133
aS'HLA-C07:03'
p3134
aS'HLA-C07:04'
p3135
aS'HLA-C07:05'
p3136
aS'HLA-C07:06'
p3137
aS'HLA-C07:07'
p3138
aS'HLA-C07:08'
p3139
aS'HLA-C07:09'
p3140
aS'HLA-C07:10'
p3141
aS'HLA-C07:100'
p3142
aS'HLA-C07:101'
p3143
aS'HLA-C07:102'
p3144
aS'HLA-C07:103'
p3145
aS'HLA-C07:105'
p3146
aS'HLA-C07:106'
p3147
aS'HLA-C07:107'
p3148
aS'HLA-C07:108'
p3149
aS'HLA-C07:109'
p3150
aS'HLA-C07:11'
p3151
aS'HLA-C07:110'
p3152
aS'HLA-C07:111'
p3153
aS'HLA-C07:112'
p3154
aS'HLA-C07:113'
p3155
aS'HLA-C07:114'
p3156
aS'HLA-C07:115'
p3157
aS'HLA-C07:116'
p3158
aS'HLA-C07:117'
p3159
aS'HLA-C07:118'
p3160
aS'HLA-C07:119'
p3161
aS'HLA-C07:12'
p3162
aS'HLA-C07:120'
p3163
aS'HLA-C07:122'
p3164
aS'HLA-C07:123'
p3165
aS'HLA-C07:124'
p3166
aS'HLA-C07:125'
p3167
aS'HLA-C07:126'
p3168
aS'HLA-C07:127'
p3169
aS'HLA-C07:128'
p3170
aS'HLA-C07:129'
p3171
aS'HLA-C07:13'
p3172
aS'HLA-C07:130'
p3173
aS'HLA-C07:131'
p3174
aS'HLA-C07:132'
p3175
aS'HLA-C07:133'
p3176
aS'HLA-C07:134'
p3177
aS'HLA-C07:135'
p3178
aS'HLA-C07:136'
p3179
aS'HLA-C07:137'
p3180
aS'HLA-C07:138'
p3181
aS'HLA-C07:139'
p3182
aS'HLA-C07:14'
p3183
aS'HLA-C07:140'
p3184
aS'HLA-C07:141'
p3185
aS'HLA-C07:142'
p3186
aS'HLA-C07:143'
p3187
aS'HLA-C07:144'
p3188
aS'HLA-C07:145'
p3189
aS'HLA-C07:146'
p3190
aS'HLA-C07:147'
p3191
aS'HLA-C07:148'
p3192
aS'HLA-C07:149'
p3193
aS'HLA-C07:15'
p3194
aS'HLA-C07:16'
p3195
aS'HLA-C07:17'
p3196
aS'HLA-C07:18'
p3197
aS'HLA-C07:19'
p3198
aS'HLA-C07:20'
p3199
aS'HLA-C07:21'
p3200
aS'HLA-C07:22'
p3201
aS'HLA-C07:23'
p3202
aS'HLA-C07:24'
p3203
aS'HLA-C07:25'
p3204
aS'HLA-C07:26'
p3205
aS'HLA-C07:27'
p3206
aS'HLA-C07:28'
p3207
aS'HLA-C07:29'
p3208
aS'HLA-C07:30'
p3209
aS'HLA-C07:31'
p3210
aS'HLA-C07:35'
p3211
aS'HLA-C07:36'
p3212
aS'HLA-C07:37'
p3213
aS'HLA-C07:38'
p3214
aS'HLA-C07:39'
p3215
aS'HLA-C07:40'
p3216
aS'HLA-C07:41'
p3217
aS'HLA-C07:42'
p3218
aS'HLA-C07:43'
p3219
aS'HLA-C07:44'
p3220
aS'HLA-C07:45'
p3221
aS'HLA-C07:46'
p3222
aS'HLA-C07:47'
p3223
aS'HLA-C07:48'
p3224
aS'HLA-C07:49'
p3225
aS'HLA-C07:50'
p3226
aS'HLA-C07:51'
p3227
aS'HLA-C07:52'
p3228
aS'HLA-C07:53'
p3229
aS'HLA-C07:54'
p3230
aS'HLA-C07:56'
p3231
aS'HLA-C07:57'
p3232
aS'HLA-C07:58'
p3233
aS'HLA-C07:59'
p3234
aS'HLA-C07:60'
p3235
aS'HLA-C07:62'
p3236
aS'HLA-C07:63'
p3237
aS'HLA-C07:64'
p3238
aS'HLA-C07:65'
p3239
aS'HLA-C07:66'
p3240
aS'HLA-C07:67'
p3241
aS'HLA-C07:68'
p3242
aS'HLA-C07:69'
p3243
aS'HLA-C07:70'
p3244
aS'HLA-C07:71'
p3245
aS'HLA-C07:72'
p3246
aS'HLA-C07:73'
p3247
aS'HLA-C07:74'
p3248
aS'HLA-C07:75'
p3249
aS'HLA-C07:76'
p3250
aS'HLA-C07:77'
p3251
aS'HLA-C07:78'
p3252
aS'HLA-C07:79'
p3253
aS'HLA-C07:80'
p3254
aS'HLA-C07:81'
p3255
aS'HLA-C07:82'
p3256
aS'HLA-C07:83'
p3257
aS'HLA-C07:84'
p3258
aS'HLA-C07:85'
p3259
aS'HLA-C07:86'
p3260
aS'HLA-C07:87'
p3261
aS'HLA-C07:88'
p3262
aS'HLA-C07:89'
p3263
aS'HLA-C07:90'
p3264
aS'HLA-C07:91'
p3265
aS'HLA-C07:92'
p3266
aS'HLA-C07:93'
p3267
aS'HLA-C07:94'
p3268
aS'HLA-C07:95'
p3269
aS'HLA-C07:96'
p3270
aS'HLA-C07:97'
p3271
aS'HLA-C07:99'
p3272
aS'HLA-C08:01'
p3273
aS'HLA-C08:02'
p3274
aS'HLA-C08:03'
p3275
aS'HLA-C08:04'
p3276
aS'HLA-C08:05'
p3277
aS'HLA-C08:06'
p3278
aS'HLA-C08:07'
p3279
aS'HLA-C08:08'
p3280
aS'HLA-C08:09'
p3281
aS'HLA-C08:10'
p3282
aS'HLA-C08:11'
p3283
aS'HLA-C08:12'
p3284
aS'HLA-C08:13'
p3285
aS'HLA-C08:14'
p3286
aS'HLA-C08:15'
p3287
aS'HLA-C08:16'
p3288
aS'HLA-C08:17'
p3289
aS'HLA-C08:18'
p3290
aS'HLA-C08:19'
p3291
aS'HLA-C08:20'
p3292
aS'HLA-C08:21'
p3293
aS'HLA-C08:22'
p3294
aS'HLA-C08:23'
p3295
aS'HLA-C08:24'
p3296
aS'HLA-C08:25'
p3297
aS'HLA-C08:27'
p3298
aS'HLA-C08:28'
p3299
aS'HLA-C08:29'
p3300
aS'HLA-C08:30'
p3301
aS'HLA-C08:31'
p3302
aS'HLA-C08:32'
p3303
aS'HLA-C08:33'
p3304
aS'HLA-C08:34'
p3305
aS'HLA-C08:35'
p3306
aS'HLA-C12:02'
p3307
aS'HLA-C12:03'
p3308
aS'HLA-C12:04'
p3309
aS'HLA-C12:05'
p3310
aS'HLA-C12:06'
p3311
aS'HLA-C12:07'
p3312
aS'HLA-C12:08'
p3313
aS'HLA-C12:09'
p3314
aS'HLA-C12:10'
p3315
aS'HLA-C12:11'
p3316
aS'HLA-C12:12'
p3317
aS'HLA-C12:13'
p3318
aS'HLA-C12:14'
p3319
aS'HLA-C12:15'
p3320
aS'HLA-C12:16'
p3321
aS'HLA-C12:17'
p3322
aS'HLA-C12:18'
p3323
aS'HLA-C12:19'
p3324
aS'HLA-C12:20'
p3325
aS'HLA-C12:21'
p3326
aS'HLA-C12:22'
p3327
aS'HLA-C12:23'
p3328
aS'HLA-C12:24'
p3329
aS'HLA-C12:25'
p3330
aS'HLA-C12:26'
p3331
aS'HLA-C12:27'
p3332
aS'HLA-C12:28'
p3333
aS'HLA-C12:29'
p3334
aS'HLA-C12:30'
p3335
aS'HLA-C12:31'
p3336
aS'HLA-C12:32'
p3337
aS'HLA-C12:33'
p3338
aS'HLA-C12:34'
p3339
aS'HLA-C12:35'
p3340
aS'HLA-C12:36'
p3341
aS'HLA-C12:37'
p3342
aS'HLA-C12:38'
p3343
aS'HLA-C12:40'
p3344
aS'HLA-C12:41'
p3345
aS'HLA-C12:43'
p3346
aS'HLA-C12:44'
p3347
aS'HLA-C14:02'
p3348
aS'HLA-C14:03'
p3349
aS'HLA-C14:04'
p3350
aS'HLA-C14:05'
p3351
aS'HLA-C14:06'
p3352
aS'HLA-C14:08'
p3353
aS'HLA-C14:09'
p3354
aS'HLA-C14:10'
p3355
aS'HLA-C14:11'
p3356
aS'HLA-C14:12'
p3357
aS'HLA-C14:13'
p3358
aS'HLA-C14:14'
p3359
aS'HLA-C14:15'
p3360
aS'HLA-C14:16'
p3361
aS'HLA-C14:17'
p3362
aS'HLA-C14:18'
p3363
aS'HLA-C14:19'
p3364
aS'HLA-C14:20'
p3365
aS'HLA-C15:02'
p3366
aS'HLA-C15:03'
p3367
aS'HLA-C15:04'
p3368
aS'HLA-C15:05'
p3369
aS'HLA-C15:06'
p3370
aS'HLA-C15:07'
p3371
aS'HLA-C15:08'
p3372
aS'HLA-C15:09'
p3373
aS'HLA-C15:10'
p3374
aS'HLA-C15:11'
p3375
aS'HLA-C15:12'
p3376
aS'HLA-C15:13'
p3377
aS'HLA-C15:15'
p3378
aS'HLA-C15:16'
p3379
aS'HLA-C15:17'
p3380
aS'HLA-C15:18'
p3381
aS'HLA-C15:19'
p3382
aS'HLA-C15:20'
p3383
aS'HLA-C15:21'
p3384
aS'HLA-C15:22'
p3385
aS'HLA-C15:23'
p3386
aS'HLA-C15:24'
p3387
aS'HLA-C15:25'
p3388
aS'HLA-C15:26'
p3389
aS'HLA-C15:27'
p3390
aS'HLA-C15:28'
p3391
aS'HLA-C15:29'
p3392
aS'HLA-C15:30'
p3393
aS'HLA-C15:31'
p3394
aS'HLA-C15:33'
p3395
aS'HLA-C15:34'
p3396
aS'HLA-C15:35'
p3397
aS'HLA-C16:01'
p3398
aS'HLA-C16:02'
p3399
aS'HLA-C16:04'
p3400
aS'HLA-C16:06'
p3401
aS'HLA-C16:07'
p3402
aS'HLA-C16:08'
p3403
aS'HLA-C16:09'
p3404
aS'HLA-C16:10'
p3405
aS'HLA-C16:11'
p3406
aS'HLA-C16:12'
p3407
aS'HLA-C16:13'
p3408
aS'HLA-C16:14'
p3409
aS'HLA-C16:15'
p3410
aS'HLA-C16:17'
p3411
aS'HLA-C16:18'
p3412
aS'HLA-C16:19'
p3413
aS'HLA-C16:20'
p3414
aS'HLA-C16:21'
p3415
aS'HLA-C16:22'
p3416
aS'HLA-C16:23'
p3417
aS'HLA-C16:24'
p3418
aS'HLA-C16:25'
p3419
aS'HLA-C16:26'
p3420
aS'HLA-C17:01'
p3421
aS'HLA-C17:02'
p3422
aS'HLA-C17:03'
p3423
aS'HLA-C17:04'
p3424
aS'HLA-C17:05'
p3425
aS'HLA-C17:06'
p3426
aS'HLA-C17:07'
p3427
aS'HLA-C18:01'
p3428
aS'HLA-C18:02'
p3429
aS'HLA-C18:03'
p3430
aS'HLA-E01:01'
p3431
aS'HLA-G01:01'
p3432
aS'HLA-G01:02'
p3433
aS'HLA-G01:03'
p3434
aS'HLA-G01:04'
p3435
aS'HLA-G01:06'
p3436
aS'HLA-G01:07'
p3437
aS'HLA-G01:08'
p3438
aS'HLA-G01:09'
p3439
aS'Mamu-A01'
p3440
aS'Mamu-A02'
p3441
aS'Mamu-A07'
p3442
aS'Mamu-A11'
p3443
aS'Mamu-A1:00101'
p3444
aS'Mamu-A1:00102'
p3445
aS'Mamu-A1:00103'
p3446
aS'Mamu-A1:00104'
p3447
aS'Mamu-A1:00105'
p3448
aS'Mamu-A1:00201'
p3449
aS'Mamu-A1:00301'
p3450
aS'Mamu-A1:00302'
p3451
aS'Mamu-A1:00303'
p3452
aS'Mamu-A1:00304'
p3453
aS'Mamu-A1:00305'
p3454
aS'Mamu-A1:00306'
p3455
aS'Mamu-A1:00307'
p3456
aS'Mamu-A1:00308'
p3457
aS'Mamu-A1:00310'
p3458
aS'Mamu-A1:00401'
p3459
aS'Mamu-A1:00402'
p3460
aS'Mamu-A1:00403'
p3461
aS'Mamu-A1:00601'
p3462
aS'Mamu-A1:00602'
p3463
aS'Mamu-A1:00701'
p3464
aS'Mamu-A1:00702'
p3465
aS'Mamu-A1:00703'
p3466
aS'Mamu-A1:00704'
p3467
aS'Mamu-A1:00705'
p3468
aS'Mamu-A1:00801'
p3469
aS'Mamu-A1:01001'
p3470
aS'Mamu-A1:01002'
p3471
aS'Mamu-A1:01101'
p3472
aS'Mamu-A1:01102'
p3473
aS'Mamu-A1:01103'
p3474
aS'Mamu-A1:01104'
p3475
aS'Mamu-A1:01201'
p3476
aS'Mamu-A1:01601'
p3477
aS'Mamu-A1:01801'
p3478
aS'Mamu-A1:01802'
p3479
aS'Mamu-A1:01803'
p3480
aS'Mamu-A1:01804'
p3481
aS'Mamu-A1:01805'
p3482
aS'Mamu-A1:01806'
p3483
aS'Mamu-A1:01807'
p3484
aS'Mamu-A1:01808'
p3485
aS'Mamu-A1:01901'
p3486
aS'Mamu-A1:01902'
p3487
aS'Mamu-A1:01903'
p3488
aS'Mamu-A1:01904'
p3489
aS'Mamu-A1:01905'
p3490
aS'Mamu-A1:01906'
p3491
aS'Mamu-A1:01907'
p3492
aS'Mamu-A1:02201'
p3493
aS'Mamu-A1:02202'
p3494
aS'Mamu-A1:02203'
p3495
aS'Mamu-A1:02301'
p3496
aS'Mamu-A1:02302'
p3497
aS'Mamu-A1:02501'
p3498
aS'Mamu-A1:02502'
p3499
aS'Mamu-A1:02601'
p3500
aS'Mamu-A1:02602'
p3501
aS'Mamu-A1:02603'
p3502
aS'Mamu-A1:02801'
p3503
aS'Mamu-A1:02802'
p3504
aS'Mamu-A1:02803'
p3505
aS'Mamu-A1:02804'
p3506
aS'Mamu-A1:02805'
p3507
aS'Mamu-A1:02806'
p3508
aS'Mamu-A1:03201'
p3509
aS'Mamu-A1:03202'
p3510
aS'Mamu-A1:03203'
p3511
aS'Mamu-A1:03301'
p3512
aS'Mamu-A1:04001'
p3513
aS'Mamu-A1:04002'
p3514
aS'Mamu-A1:04003'
p3515
aS'Mamu-A1:04101'
p3516
aS'Mamu-A1:04102'
p3517
aS'Mamu-A1:04201'
p3518
aS'Mamu-A1:04301'
p3519
aS'Mamu-A1:04501'
p3520
aS'Mamu-A1:04801'
p3521
aS'Mamu-A1:04901'
p3522
aS'Mamu-A1:04902'
p3523
aS'Mamu-A1:04903'
p3524
aS'Mamu-A1:04904'
p3525
aS'Mamu-A1:05001'
p3526
aS'Mamu-A1:05101'
p3527
aS'Mamu-A1:05201'
p3528
aS'Mamu-A1:05301'
p3529
aS'Mamu-A1:05302'
p3530
aS'Mamu-A1:05401'
p3531
aS'Mamu-A1:05402'
p3532
aS'Mamu-A1:05501'
p3533
aS'Mamu-A1:05601'
p3534
aS'Mamu-A1:05602'
p3535
aS'Mamu-A1:05603'
p3536
aS'Mamu-A1:05701'
p3537
aS'Mamu-A1:05702'
p3538
aS'Mamu-A1:05901'
p3539
aS'Mamu-A1:06001'
p3540
aS'Mamu-A1:06101'
p3541
aS'Mamu-A1:06301'
p3542
aS'Mamu-A1:06501'
p3543
aS'Mamu-A1:06601'
p3544
aS'Mamu-A1:07301'
p3545
aS'Mamu-A1:07401'
p3546
aS'Mamu-A1:07402'
p3547
aS'Mamu-A1:07403'
p3548
aS'Mamu-A1:08101'
p3549
aS'Mamu-A1:08501'
p3550
aS'Mamu-A1:09101'
p3551
aS'Mamu-A1:09201'
p3552
aS'Mamu-A1:10501'
p3553
aS'Mamu-A1:10502'
p3554
aS'Mamu-A1:10503'
p3555
aS'Mamu-A1:10504'
p3556
aS'Mamu-A1:10601'
p3557
aS'Mamu-A1:10701'
p3558
aS'Mamu-A1:10801'
p3559
aS'Mamu-A1:10901'
p3560
aS'Mamu-A1:11001'
p3561
aS'Mamu-A1:11101'
p3562
aS'Mamu-A1:11201'
p3563
aS'Mamu-A1:11301'
p3564
aS'Mamu-A20102'
p3565
aS'Mamu-A2201'
p3566
aS'Mamu-A2601'
p3567
aS'Mamu-A2:0101'
p3568
aS'Mamu-A2:0102'
p3569
aS'Mamu-A2:0103'
p3570
aS'Mamu-A2:0501'
p3571
aS'Mamu-A2:05020'
p3572
aS'Mamu-A2:05030'
p3573
aS'Mamu-A2:05040'
p3574
aS'Mamu-A2:0505'
p3575
aS'Mamu-A2:0506'
p3576
aS'Mamu-A2:0507'
p3577
aS'Mamu-A2:0509'
p3578
aS'Mamu-A2:0510'
p3579
aS'Mamu-A2:0511'
p3580
aS'Mamu-A2:0512'
p3581
aS'Mamu-A2:0513'
p3582
aS'Mamu-A2:0514'
p3583
aS'Mamu-A2:05150'
p3584
aS'Mamu-A2:05160'
p3585
aS'Mamu-A2:0517'
p3586
aS'Mamu-A2:0518'
p3587
aS'Mamu-A2:0519'
p3588
aS'Mamu-A2:0520'
p3589
aS'Mamu-A2:0521'
p3590
aS'Mamu-A2:0522'
p3591
aS'Mamu-A2:0523'
p3592
aS'Mamu-A2:0524'
p3593
aS'Mamu-A2:0525'
p3594
aS'Mamu-A2:0526'
p3595
aS'Mamu-A2:0527'
p3596
aS'Mamu-A2:0528'
p3597
aS'Mamu-A2:0529'
p3598
aS'Mamu-A2:0531'
p3599
aS'Mamu-A2:05320'
p3600
aS'Mamu-A2:0533'
p3601
aS'Mamu-A2:0534'
p3602
aS'Mamu-A2:0535'
p3603
aS'Mamu-A2:0536'
p3604
aS'Mamu-A2:0537'
p3605
aS'Mamu-A2:0538'
p3606
aS'Mamu-A2:0539'
p3607
aS'Mamu-A2:0540'
p3608
aS'Mamu-A2:0541'
p3609
aS'Mamu-A2:0542'
p3610
aS'Mamu-A2:0543'
p3611
aS'Mamu-A2:0544'
p3612
aS'Mamu-A2:0545'
p3613
aS'Mamu-A2:0546'
p3614
aS'Mamu-A2:0547'
p3615
aS'Mamu-A2:2401'
p3616
aS'Mamu-A2:2402'
p3617
aS'Mamu-A2:2403'
p3618
aS'Mamu-A3:1301'
p3619
aS'Mamu-A3:1302'
p3620
aS'Mamu-A3:1303'
p3621
aS'Mamu-A3:1304'
p3622
aS'Mamu-A3:1305'
p3623
aS'Mamu-A3:1306'
p3624
aS'Mamu-A3:1307'
p3625
aS'Mamu-A3:1308'
p3626
aS'Mamu-A3:1309'
p3627
aS'Mamu-A3:1310'
p3628
aS'Mamu-A3:1311'
p3629
aS'Mamu-A3:1312'
p3630
aS'Mamu-A3:1313'
p3631
aS'Mamu-A4:0101'
p3632
aS'Mamu-A4:01020'
p3633
aS'Mamu-A4:0103'
p3634
aS'Mamu-A4:0202'
p3635
aS'Mamu-A4:0203'
p3636
aS'Mamu-A4:0205'
p3637
aS'Mamu-A4:0301'
p3638
aS'Mamu-A4:0302'
p3639
aS'Mamu-A4:1402'
p3640
aS'Mamu-A4:14030'
p3641
aS'Mamu-A4:1404'
p3642
aS'Mamu-A4:1405'
p3643
aS'Mamu-A4:1406'
p3644
aS'Mamu-A4:1407'
p3645
aS'Mamu-A4:1408'
p3646
aS'Mamu-A4:1409'
p3647
aS'Mamu-A5:30010'
p3648
aS'Mamu-A5:3002'
p3649
aS'Mamu-A5:3003'
p3650
aS'Mamu-A5:3004'
p3651
aS'Mamu-A5:3005'
p3652
aS'Mamu-A5:3006'
p3653
aS'Mamu-A6:0101'
p3654
aS'Mamu-A6:0102'
p3655
aS'Mamu-A6:0103'
p3656
aS'Mamu-A6:0104'
p3657
aS'Mamu-A6:0105'
p3658
aS'Mamu-A70103'
p3659
aS'Mamu-A7:0101'
p3660
aS'Mamu-A7:0102'
p3661
aS'Mamu-A7:0103'
p3662
aS'Mamu-A7:0201'
p3663
aS'Mamu-AG:01'
p3664
aS'Mamu-AG:02011'
p3665
aS'Mamu-AG:02012'
p3666
aS'Mamu-AG:0202'
p3667
aS'Mamu-AG:03011'
p3668
aS'Mamu-AG:0302'
p3669
aS'Mamu-B01'
p3670
aS'Mamu-B03'
p3671
aS'Mamu-B08'
p3672
aS'Mamu-B1001'
p3673
aS'Mamu-B17'
p3674
aS'Mamu-B3901'
p3675
aS'Mamu-B52'
p3676
aS'Mamu-B6601'
p3677
aS'Mamu-B8301'
p3678
aS'Mamu-B8701'
p3679
aS'Mamu-B:00101'
p3680
aS'Mamu-B:00102'
p3681
aS'Mamu-B:00201'
p3682
aS'Mamu-B:00202'
p3683
aS'Mamu-B:00301'
p3684
aS'Mamu-B:00302'
p3685
aS'Mamu-B:00401'
p3686
aS'Mamu-B:00501'
p3687
aS'Mamu-B:00502'
p3688
aS'Mamu-B:00601'
p3689
aS'Mamu-B:00602'
p3690
aS'Mamu-B:00701'
p3691
aS'Mamu-B:00702'
p3692
aS'Mamu-B:00703'
p3693
aS'Mamu-B:00704'
p3694
aS'Mamu-B:00801'
p3695
aS'Mamu-B:01001'
p3696
aS'Mamu-B:01101'
p3697
aS'Mamu-B:01201'
p3698
aS'Mamu-B:01301'
p3699
aS'Mamu-B:01401'
p3700
aS'Mamu-B:01501'
p3701
aS'Mamu-B:01502'
p3702
aS'Mamu-B:01601'
p3703
aS'Mamu-B:01701'
p3704
aS'Mamu-B:01702'
p3705
aS'Mamu-B:01703'
p3706
aS'Mamu-B:01801'
p3707
aS'Mamu-B:01901'
p3708
aS'Mamu-B:01902'
p3709
aS'Mamu-B:01903'
p3710
aS'Mamu-B:02001'
p3711
aS'Mamu-B:02101'
p3712
aS'Mamu-B:02102'
p3713
aS'Mamu-B:02103'
p3714
aS'Mamu-B:02201'
p3715
aS'Mamu-B:02301'
p3716
aS'Mamu-B:02401'
p3717
aS'Mamu-B:02501'
p3718
aS'Mamu-B:02601'
p3719
aS'Mamu-B:02602'
p3720
aS'Mamu-B:02701'
p3721
aS'Mamu-B:02702'
p3722
aS'Mamu-B:02703'
p3723
aS'Mamu-B:02801'
p3724
aS'Mamu-B:02802'
p3725
aS'Mamu-B:02803'
p3726
aS'Mamu-B:02901'
p3727
aS'Mamu-B:02902'
p3728
aS'Mamu-B:03001'
p3729
aS'Mamu-B:03002'
p3730
aS'Mamu-B:03003'
p3731
aS'Mamu-B:03004'
p3732
aS'Mamu-B:03005'
p3733
aS'Mamu-B:03101'
p3734
aS'Mamu-B:03102'
p3735
aS'Mamu-B:03103'
p3736
aS'Mamu-B:03201'
p3737
aS'Mamu-B:03301'
p3738
aS'Mamu-B:03401'
p3739
aS'Mamu-B:03501'
p3740
aS'Mamu-B:03601'
p3741
aS'Mamu-B:03602'
p3742
aS'Mamu-B:03701'
p3743
aS'Mamu-B:03801'
p3744
aS'Mamu-B:03802'
p3745
aS'Mamu-B:03901'
p3746
aS'Mamu-B:04001'
p3747
aS'Mamu-B:04002'
p3748
aS'Mamu-B:04101'
p3749
aS'Mamu-B:04201'
p3750
aS'Mamu-B:04301'
p3751
aS'Mamu-B:04401'
p3752
aS'Mamu-B:04402'
p3753
aS'Mamu-B:04403'
p3754
aS'Mamu-B:04404'
p3755
aS'Mamu-B:04405'
p3756
aS'Mamu-B:04501'
p3757
aS'Mamu-B:04502'
p3758
aS'Mamu-B:04503'
p3759
aS'Mamu-B:04504'
p3760
aS'Mamu-B:04601'
p3761
aS'Mamu-B:04602'
p3762
aS'Mamu-B:04603'
p3763
aS'Mamu-B:04604'
p3764
aS'Mamu-B:04605'
p3765
aS'Mamu-B:04607'
p3766
aS'Mamu-B:04608'
p3767
aS'Mamu-B:04609'
p3768
aS'Mamu-B:04610'
p3769
aS'Mamu-B:04611'
p3770
aS'Mamu-B:04612'
p3771
aS'Mamu-B:04613'
p3772
aS'Mamu-B:04614'
p3773
aS'Mamu-B:04615'
p3774
aS'Mamu-B:04616'
p3775
aS'Mamu-B:04617'
p3776
aS'Mamu-B:04701'
p3777
aS'Mamu-B:04702'
p3778
aS'Mamu-B:04703'
p3779
aS'Mamu-B:04704'
p3780
aS'Mamu-B:04705'
p3781
aS'Mamu-B:04801'
p3782
aS'Mamu-B:04802'
p3783
aS'Mamu-B:04901'
p3784
aS'Mamu-B:05002'
p3785
aS'Mamu-B:05101'
p3786
aS'Mamu-B:05102'
p3787
aS'Mamu-B:05103'
p3788
aS'Mamu-B:05104'
p3789
aS'Mamu-B:05105'
p3790
aS'Mamu-B:05201'
p3791
aS'Mamu-B:05301'
p3792
aS'Mamu-B:05302'
p3793
aS'Mamu-B:05401'
p3794
aS'Mamu-B:05501'
p3795
aS'Mamu-B:05601'
p3796
aS'Mamu-B:05602'
p3797
aS'Mamu-B:05701'
p3798
aS'Mamu-B:05702'
p3799
aS'Mamu-B:05802'
p3800
aS'Mamu-B:05901'
p3801
aS'Mamu-B:06001'
p3802
aS'Mamu-B:06002'
p3803
aS'Mamu-B:06003'
p3804
aS'Mamu-B:06101'
p3805
aS'Mamu-B:06102'
p3806
aS'Mamu-B:06103'
p3807
aS'Mamu-B:06301'
p3808
aS'Mamu-B:06302'
p3809
aS'Mamu-B:06401'
p3810
aS'Mamu-B:06402'
p3811
aS'Mamu-B:06501'
p3812
aS'Mamu-B:06502'
p3813
aS'Mamu-B:06503'
p3814
aS'Mamu-B:06601'
p3815
aS'Mamu-B:06701'
p3816
aS'Mamu-B:06702'
p3817
aS'Mamu-B:06801'
p3818
aS'Mamu-B:06802'
p3819
aS'Mamu-B:06803'
p3820
aS'Mamu-B:06804'
p3821
aS'Mamu-B:06805'
p3822
aS'Mamu-B:06901'
p3823
aS'Mamu-B:06902'
p3824
aS'Mamu-B:06903'
p3825
aS'Mamu-B:06904'
p3826
aS'Mamu-B:07001'
p3827
aS'Mamu-B:07002'
p3828
aS'Mamu-B:07101'
p3829
aS'Mamu-B:07201'
p3830
aS'Mamu-B:07202'
p3831
aS'Mamu-B:07301'
p3832
aS'Mamu-B:07401'
p3833
aS'Mamu-B:07402'
p3834
aS'Mamu-B:07501'
p3835
aS'Mamu-B:07502'
p3836
aS'Mamu-B:07601'
p3837
aS'Mamu-B:07602'
p3838
aS'Mamu-B:07701'
p3839
aS'Mamu-B:07702'
p3840
aS'Mamu-B:07801'
p3841
aS'Mamu-B:07901'
p3842
aS'Mamu-B:07902'
p3843
aS'Mamu-B:07903'
p3844
aS'Mamu-B:08001'
p3845
aS'Mamu-B:08101'
p3846
aS'Mamu-B:08102'
p3847
aS'Mamu-B:08201'
p3848
aS'Mamu-B:08202'
p3849
aS'Mamu-B:08301'
p3850
aS'Mamu-B:08401'
p3851
aS'Mamu-B:08501'
p3852
aS'Mamu-B:08502'
p3853
aS'Mamu-B:08601'
p3854
aS'Mamu-B:08602'
p3855
aS'Mamu-B:08603'
p3856
aS'Mamu-B:08701'
p3857
aS'Mamu-B:08801'
p3858
aS'Mamu-B:08901'
p3859
aS'Mamu-B:09001'
p3860
aS'Mamu-B:09101'
p3861
aS'Mamu-B:09102'
p3862
aS'Mamu-B:09201'
p3863
aS'Mamu-B:09301'
p3864
aS'Mamu-B:09401'
p3865
aS'Mamu-B:09501'
p3866
aS'Mamu-B:09601'
p3867
aS'Mamu-B:09701'
p3868
aS'Mamu-B:09801'
p3869
aS'Mamu-B:09901'
p3870
aS'Mamu-B:10001'
p3871
aS'Mamu-B:10101'
p3872
aS'Patr-A0101'
p3873
aS'Patr-A0201'
p3874
aS'Patr-A0301'
p3875
aS'Patr-A0302'
p3876
aS'Patr-A0401'
p3877
aS'Patr-A0402'
p3878
aS'Patr-A0404'
p3879
aS'Patr-A0501'
p3880
aS'Patr-A0601'
p3881
aS'Patr-A0602'
p3882
aS'Patr-A0701'
p3883
aS'Patr-A0801'
p3884
aS'Patr-A0802'
p3885
aS'Patr-A0803'
p3886
aS'Patr-A0901'
p3887
aS'Patr-A0902'
p3888
aS'Patr-A1001'
p3889
aS'Patr-A1101'
p3890
aS'Patr-A1201'
p3891
aS'Patr-A1301'
p3892
aS'Patr-A1401'
p3893
aS'Patr-A1501'
p3894
aS'Patr-A1502'
p3895
aS'Patr-A1601'
p3896
aS'Patr-A1701'
p3897
aS'Patr-A1702'
p3898
aS'Patr-A1703'
p3899
aS'Patr-A1801'
p3900
aS'Patr-A2301'
p3901
aS'Patr-A2401'
p3902
aS'Patr-B0101'
p3903
aS'Patr-B0102'
p3904
aS'Patr-B0201'
p3905
aS'Patr-B0203'
p3906
aS'Patr-B0301'
p3907
aS'Patr-B0302'
p3908
aS'Patr-B0401'
p3909
aS'Patr-B0402'
p3910
aS'Patr-B0501'
p3911
aS'Patr-B0502'
p3912
aS'Patr-B0601'
p3913
aS'Patr-B0701'
p3914
aS'Patr-B0702'
p3915
aS'Patr-B0801'
p3916
aS'Patr-B0802'
p3917
aS'Patr-B0901'
p3918
aS'Patr-B1001'
p3919
aS'Patr-B1101'
p3920
aS'Patr-B1102'
p3921
aS'Patr-B1202'
p3922
aS'Patr-B1301'
p3923
aS'Patr-B1401'
p3924
aS'Patr-B1601'
p3925
aS'Patr-B1602'
p3926
aS'Patr-B1701'
p3927
aS'Patr-B1702'
p3928
aS'Patr-B1703'
p3929
aS'Patr-B1801'
p3930
aS'Patr-B1901'
p3931
aS'Patr-B2001'
p3932
aS'Patr-B2101'
p3933
aS'Patr-B2201'
p3934
aS'Patr-B2202'
p3935
aS'Patr-B2301'
p3936
aS'Patr-B2302'
p3937
aS'Patr-B2303'
p3938
aS'Patr-B2401'
p3939
aS'Patr-B2402'
p3940
aS'Patr-B2501'
p3941
aS'Patr-B2601'
p3942
aS'Patr-B2701'
p3943
aS'Patr-B2801'
p3944
aS'Patr-B2901'
p3945
aS'Patr-B3001'
p3946
aS'Patr-B3501'
p3947
aS'Patr-B3601'
p3948
aS'Patr-B3701'
p3949
aS'Patr-C0201'
p3950
aS'Patr-C0202'
p3951
aS'Patr-C0203'
p3952
aS'Patr-C0204'
p3953
aS'Patr-C0205'
p3954
aS'Patr-C0206'
p3955
aS'Patr-C0301'
p3956
aS'Patr-C0302'
p3957
aS'Patr-C0303'
p3958
aS'Patr-C0304'
p3959
aS'Patr-C0401'
p3960
aS'Patr-C0501'
p3961
aS'Patr-C0502'
p3962
aS'Patr-C0601'
p3963
aS'Patr-C0701'
p3964
aS'Patr-C0801'
p3965
aS'Patr-C0901'
p3966
aS'Patr-C0902'
p3967
aS'Patr-C0903'
p3968
aS'Patr-C0904'
p3969
aS'Patr-C0905'
p3970
aS'Patr-C1001'
p3971
aS'Patr-C1101'
p3972
aS'Patr-C1201'
p3973
aS'Patr-C1301'
p3974
aS'Patr-C1302'
p3975
aS'Patr-C1501'
p3976
aS'Patr-C1601'
p3977
aS'SLA-1-CHANGDA'
p3978
aS'SLA-1-HB01'
p3979
aS'SLA-1-HB02'
p3980
aS'SLA-1-HB03'
p3981
aS'SLA-1-HB04'
p3982
aS'SLA-1-LWH'
p3983
aS'SLA-1-TPK'
p3984
aS'SLA-1-YC'
p3985
aS'SLA-1-YDL01'
p3986
aS'SLA-1-YTH'
p3987
aS'SLA-10401'
p3988
aS'SLA-1:0101'
p3989
aS'SLA-1:0201'
p3990
aS'SLA-1:0202'
p3991
aS'SLA-1:0401'
p3992
aS'SLA-1:0501'
p3993
aS'SLA-1:0601'
p3994
aS'SLA-1:0701'
p3995
aS'SLA-1:0702'
p3996
aS'SLA-1:0801'
p3997
aS'SLA-1:1101'
p3998
aS'SLA-1:1201'
p3999
aS'SLA-1:1301'
p4000
aS'SLA-1:es11'
p4001
aS'SLA-2-YDL02'
p4002
aS'SLA-20401'
p4003
aS'SLA-2:0101'
p4004
aS'SLA-2:0102'
p4005
aS'SLA-2:0201'
p4006
aS'SLA-2:0202'
p4007
aS'SLA-2:0301'
p4008
aS'SLA-2:0302'
p4009
aS'SLA-2:0401'
p4010
aS'SLA-2:0402'
p4011
aS'SLA-2:0501'
p4012
aS'SLA-2:0502'
p4013
aS'SLA-2:0601'
p4014
aS'SLA-2:0701'
p4015
aS'SLA-2:1001'
p4016
aS'SLA-2:1002'
p4017
aS'SLA-2:1101'
p4018
aS'SLA-2:1201'
p4019
aS'SLA-2:CDY.AA'
p4020
aS'SLA-2:HB01'
p4021
aS'SLA-2:LWH.AA'
p4022
aS'SLA-2:TPK.AA'
p4023
aS'SLA-2:YC.AA'
p4024
aS'SLA-2:YDL.AA'
p4025
aS'SLA-2:YDY.AA'
p4026
aS'SLA-2:YTH.AA'
p4027
aS'SLA-2:es22'
p4028
aS'SLA-3-CDY'
p4029
aS'SLA-3-HB01'
p4030
aS'SLA-3-LWH'
p4031
aS'SLA-3-TPK'
p4032
aS'SLA-3-YC'
p4033
aS'SLA-3-YDL'
p4034
aS'SLA-3-YDY01'
p4035
aS'SLA-3-YDY02'
p4036
aS'SLA-3-YTH'
p4037
aS'SLA-30401'
p4038
aS'SLA-3:0101'
p4039
aS'SLA-3:0301'
p4040
aS'SLA-3:0302'
p4041
aS'SLA-3:0303'
p4042
aS'SLA-3:0304'
p4043
aS'SLA-3:0401'
p4044
aS'SLA-3:0501'
p4045
aS'SLA-3:0502'
p4046
aS'SLA-3:0503'
p4047
aS'SLA-3:0601'
p4048
aS'SLA-3:0602'
p4049
aS'SLA-3:0701'
p4050
aS'SLA-6:0101'
p4051
aS'SLA-6:0102'
p4052
aS'SLA-6:0103'
p4053
aS'SLA-6:0104'
p4054
aS'SLA-6:0105'
p4055
asS'netMHCIIpan3'
p4056
(lp4057
S'BoLA-6*13:01'
p4058
aS'BoLA-613:01'
p4059
aS'BoLA-6:13:01'
p4060
aS'BoLA-61301'
p4061
aS'6*13:01'
p4062
aS'613:01'
p4063
aS'6:13:01'
p4064
aS'61301'
p4065
aS'Eqca-1*01:01'
p4066
aS'Eqca-101:01'
p4067
aS'Eqca-1:01:01'
p4068
aS'Eqca-10101'
p4069
aS'1*01:01'
p4070
aS'101:01'
p4071
aS'1:01:01'
p4072
aS'10101'
p4073
aS'H-2-Db'
p4074
ag4074
ag4074
ag4074
ag4074
ag4074
ag4074
ag4074
aS'H-2-Dd'
p4075
ag4075
ag4075
ag4075
ag4075
ag4075
ag4075
ag4075
aS'H-2-Kb'
p4076
ag4076
ag4076
ag4076
ag4076
ag4076
ag4076
ag4076
aS'H-2-Kd'
p4077
ag4077
ag4077
ag4077
ag4077
ag4077
ag4077
ag4077
aS'H-2-Kk'
p4078
ag4078
ag4078
ag4078
ag4078
ag4078
ag4078
ag4078
aS'H-2-Ld'
p4079
ag4079
ag4079
ag4079
ag4079
ag4079
ag4079
ag4079
aS'HLA-A*01:01'
p4080
aS'HLA-A01:01'
p4081
aS'HLA-A:01:01'
p4082
aS'HLA-A0101'
p4083
aS'A*01:01'
p4084
aS'A01:01'
p4085
aS'A:01:01'
p4086
aS'A0101'
p4087
aS'HLA-A*02:01'
p4088
aS'HLA-A02:01'
p4089
aS'HLA-A:02:01'
p4090
aS'HLA-A0201'
p4091
aS'A*02:01'
p4092
aS'A02:01'
p4093
aS'A:02:01'
p4094
aS'A0201'
p4095
aS'HLA-A*02:02'
p4096
aS'HLA-A02:02'
p4097
aS'HLA-A:02:02'
p4098
aS'HLA-A0202'
p4099
aS'A*02:02'
p4100
aS'A02:02'
p4101
aS'A:02:02'
p4102
aS'A0202'
p4103
aS'HLA-A*02:03'
p4104
aS'HLA-A02:03'
p4105
aS'HLA-A:02:03'
p4106
aS'HLA-A0203'
p4107
aS'A*02:03'
p4108
aS'A02:03'
p4109
aS'A:02:03'
p4110
aS'A0203'
p4111
aS'HLA-A*02:05'
p4112
aS'HLA-A02:05'
p4113
aS'HLA-A:02:05'
p4114
aS'HLA-A0205'
p4115
aS'A*02:05'
p4116
aS'A02:05'
p4117
aS'A:02:05'
p4118
aS'A0205'
p4119
aS'HLA-A*02:06'
p4120
aS'HLA-A02:06'
p4121
aS'HLA-A:02:06'
p4122
aS'HLA-A0206'
p4123
aS'A*02:06'
p4124
aS'A02:06'
p4125
aS'A:02:06'
p4126
aS'A0206'
p4127
aS'HLA-A*02:07'
p4128
aS'HLA-A02:07'
p4129
aS'HLA-A:02:07'
p4130
aS'HLA-A0207'
p4131
aS'A*02:07'
p4132
aS'A02:07'
p4133
aS'A:02:07'
p4134
aS'A0207'
p4135
aS'HLA-A*02:11'
p4136
aS'HLA-A02:11'
p4137
aS'HLA-A:02:11'
p4138
aS'HLA-A0211'
p4139
aS'A*02:11'
p4140
aS'A02:11'
p4141
aS'A:02:11'
p4142
aS'A0211'
p4143
aS'HLA-A*02:12'
p4144
aS'HLA-A02:12'
p4145
aS'HLA-A:02:12'
p4146
aS'HLA-A0212'
p4147
aS'A*02:12'
p4148
aS'A02:12'
p4149
aS'A:02:12'
p4150
aS'A0212'
p4151
aS'HLA-A*02:16'
p4152
aS'HLA-A02:16'
p4153
aS'HLA-A:02:16'
p4154
aS'HLA-A0216'
p4155
aS'A*02:16'
p4156
aS'A02:16'
p4157
aS'A:02:16'
p4158
aS'A0216'
p4159
aS'HLA-A*02:17'
p4160
aS'HLA-A02:17'
p4161
aS'HLA-A:02:17'
p4162
aS'HLA-A0217'
p4163
aS'A*02:17'
p4164
aS'A02:17'
p4165
aS'A:02:17'
p4166
aS'A0217'
p4167
aS'HLA-A*02:19'
p4168
aS'HLA-A02:19'
p4169
aS'HLA-A:02:19'
p4170
aS'HLA-A0219'
p4171
aS'A*02:19'
p4172
aS'A02:19'
p4173
aS'A:02:19'
p4174
aS'A0219'
p4175
aS'HLA-A*02:50'
p4176
aS'HLA-A02:50'
p4177
aS'HLA-A:02:50'
p4178
aS'HLA-A0250'
p4179
aS'A*02:50'
p4180
aS'A02:50'
p4181
aS'A:02:50'
p4182
aS'A0250'
p4183
aS'HLA-A*03:01'
p4184
aS'HLA-A03:01'
p4185
aS'HLA-A:03:01'
p4186
aS'HLA-A0301'
p4187
aS'A*03:01'
p4188
aS'A03:01'
p4189
aS'A:03:01'
p4190
aS'A0301'
p4191
aS'HLA-A*11:01'
p4192
aS'HLA-A11:01'
p4193
aS'HLA-A:11:01'
p4194
aS'HLA-A1101'
p4195
aS'A*11:01'
p4196
aS'A11:01'
p4197
aS'A:11:01'
p4198
aS'A1101'
p4199
aS'HLA-A*23:01'
p4200
aS'HLA-A23:01'
p4201
aS'HLA-A:23:01'
p4202
aS'HLA-A2301'
p4203
aS'A*23:01'
p4204
aS'A23:01'
p4205
aS'A:23:01'
p4206
aS'A2301'
p4207
aS'HLA-A*24:02'
p4208
aS'HLA-A24:02'
p4209
aS'HLA-A:24:02'
p4210
aS'HLA-A2402'
p4211
aS'A*24:02'
p4212
aS'A24:02'
p4213
aS'A:24:02'
p4214
aS'A2402'
p4215
aS'HLA-A*24:03'
p4216
aS'HLA-A24:03'
p4217
aS'HLA-A:24:03'
p4218
aS'HLA-A2403'
p4219
aS'A*24:03'
p4220
aS'A24:03'
p4221
aS'A:24:03'
p4222
aS'A2403'
p4223
aS'HLA-A*25:01'
p4224
aS'HLA-A25:01'
p4225
aS'HLA-A:25:01'
p4226
aS'HLA-A2501'
p4227
aS'A*25:01'
p4228
aS'A25:01'
p4229
aS'A:25:01'
p4230
aS'A2501'
p4231
aS'HLA-A*26:01'
p4232
aS'HLA-A26:01'
p4233
aS'HLA-A:26:01'
p4234
aS'HLA-A2601'
p4235
aS'A*26:01'
p4236
aS'A26:01'
p4237
aS'A:26:01'
p4238
aS'A2601'
p4239
aS'HLA-A*26:02'
p4240
aS'HLA-A26:02'
p4241
aS'HLA-A:26:02'
p4242
aS'HLA-A2602'
p4243
aS'A*26:02'
p4244
aS'A26:02'
p4245
aS'A:26:02'
p4246
aS'A2602'
p4247
aS'HLA-A*26:03'
p4248
aS'HLA-A26:03'
p4249
aS'HLA-A:26:03'
p4250
aS'HLA-A2603'
p4251
aS'A*26:03'
p4252
aS'A26:03'
p4253
aS'A:26:03'
p4254
aS'A2603'
p4255
aS'HLA-A*29:02'
p4256
aS'HLA-A29:02'
p4257
aS'HLA-A:29:02'
p4258
aS'HLA-A2902'
p4259
aS'A*29:02'
p4260
aS'A29:02'
p4261
aS'A:29:02'
p4262
aS'A2902'
p4263
aS'HLA-A*30:01'
p4264
aS'HLA-A30:01'
p4265
aS'HLA-A:30:01'
p4266
aS'HLA-A3001'
p4267
aS'A*30:01'
p4268
aS'A30:01'
p4269
aS'A:30:01'
p4270
aS'A3001'
p4271
aS'HLA-A*30:02'
p4272
aS'HLA-A30:02'
p4273
aS'HLA-A:30:02'
p4274
aS'HLA-A3002'
p4275
aS'A*30:02'
p4276
aS'A30:02'
p4277
aS'A:30:02'
p4278
aS'A3002'
p4279
aS'HLA-A*31:01'
p4280
aS'HLA-A31:01'
p4281
aS'HLA-A:31:01'
p4282
aS'HLA-A3101'
p4283
aS'A*31:01'
p4284
aS'A31:01'
p4285
aS'A:31:01'
p4286
aS'A3101'
p4287
aS'HLA-A*32:01'
p4288
aS'HLA-A32:01'
p4289
aS'HLA-A:32:01'
p4290
aS'HLA-A3201'
p4291
aS'A*32:01'
p4292
aS'A32:01'
p4293
aS'A:32:01'
p4294
aS'A3201'
p4295
aS'HLA-A*33:01'
p4296
aS'HLA-A33:01'
p4297
aS'HLA-A:33:01'
p4298
aS'HLA-A3301'
p4299
aS'A*33:01'
p4300
aS'A33:01'
p4301
aS'A:33:01'
p4302
aS'A3301'
p4303
aS'HLA-A*66:01'
p4304
aS'HLA-A66:01'
p4305
aS'HLA-A:66:01'
p4306
aS'HLA-A6601'
p4307
aS'A*66:01'
p4308
aS'A66:01'
p4309
aS'A:66:01'
p4310
aS'A6601'
p4311
aS'HLA-A*68:01'
p4312
aS'HLA-A68:01'
p4313
aS'HLA-A:68:01'
p4314
aS'HLA-A6801'
p4315
aS'A*68:01'
p4316
aS'A68:01'
p4317
aS'A:68:01'
p4318
aS'A6801'
p4319
aS'HLA-A*68:02'
p4320
aS'HLA-A68:02'
p4321
aS'HLA-A:68:02'
p4322
aS'HLA-A6802'
p4323
aS'A*68:02'
p4324
aS'A68:02'
p4325
aS'A:68:02'
p4326
aS'A6802'
p4327
aS'HLA-A*68:23'
p4328
aS'HLA-A68:23'
p4329
aS'HLA-A:68:23'
p4330
aS'HLA-A6823'
p4331
aS'A*68:23'
p4332
aS'A68:23'
p4333
aS'A:68:23'
p4334
aS'A6823'
p4335
aS'HLA-A*69:01'
p4336
aS'HLA-A69:01'
p4337
aS'HLA-A:69:01'
p4338
aS'HLA-A6901'
p4339
aS'A*69:01'
p4340
aS'A69:01'
p4341
aS'A:69:01'
p4342
aS'A6901'
p4343
aS'HLA-A*80:01'
p4344
aS'HLA-A80:01'
p4345
aS'HLA-A:80:01'
p4346
aS'HLA-A8001'
p4347
aS'A*80:01'
p4348
aS'A80:01'
p4349
aS'A:80:01'
p4350
aS'A8001'
p4351
aS'HLA-B*07:01'
p4352
aS'HLA-B07:01'
p4353
aS'HLA-B:07:01'
p4354
aS'HLA-B0701'
p4355
aS'B*07:01'
p4356
aS'B07:01'
p4357
aS'B:07:01'
p4358
aS'B0701'
p4359
aS'HLA-B*07:02'
p4360
aS'HLA-B07:02'
p4361
aS'HLA-B:07:02'
p4362
aS'HLA-B0702'
p4363
aS'B*07:02'
p4364
aS'B07:02'
p4365
aS'B:07:02'
p4366
aS'B0702'
p4367
aS'HLA-B*08:01'
p4368
aS'HLA-B08:01'
p4369
aS'HLA-B:08:01'
p4370
aS'HLA-B0801'
p4371
aS'B*08:01'
p4372
aS'B08:01'
p4373
aS'B:08:01'
p4374
aS'B0801'
p4375
aS'HLA-B*08:02'
p4376
aS'HLA-B08:02'
p4377
aS'HLA-B:08:02'
p4378
aS'HLA-B0802'
p4379
aS'B*08:02'
p4380
aS'B08:02'
p4381
aS'B:08:02'
p4382
aS'B0802'
p4383
aS'HLA-B*08:03'
p4384
aS'HLA-B08:03'
p4385
aS'HLA-B:08:03'
p4386
aS'HLA-B0803'
p4387
aS'B*08:03'
p4388
aS'B08:03'
p4389
aS'B:08:03'
p4390
aS'B0803'
p4391
aS'HLA-B*14:02'
p4392
aS'HLA-B14:02'
p4393
aS'HLA-B:14:02'
p4394
aS'HLA-B1402'
p4395
aS'B*14:02'
p4396
aS'B14:02'
p4397
aS'B:14:02'
p4398
aS'B1402'
p4399
aS'HLA-B*15:01'
p4400
aS'HLA-B15:01'
p4401
aS'HLA-B:15:01'
p4402
aS'HLA-B1501'
p4403
aS'B*15:01'
p4404
aS'B15:01'
p4405
aS'B:15:01'
p4406
aS'B1501'
p4407
aS'HLA-B*15:02'
p4408
aS'HLA-B15:02'
p4409
aS'HLA-B:15:02'
p4410
aS'HLA-B1502'
p4411
aS'B*15:02'
p4412
aS'B15:02'
p4413
aS'B:15:02'
p4414
aS'B1502'
p4415
aS'HLA-B*15:03'
p4416
aS'HLA-B15:03'
p4417
aS'HLA-B:15:03'
p4418
aS'HLA-B1503'
p4419
aS'B*15:03'
p4420
aS'B15:03'
p4421
aS'B:15:03'
p4422
aS'B1503'
p4423
aS'HLA-B*15:09'
p4424
aS'HLA-B15:09'
p4425
aS'HLA-B:15:09'
p4426
aS'HLA-B1509'
p4427
aS'B*15:09'
p4428
aS'B15:09'
p4429
aS'B:15:09'
p4430
aS'B1509'
p4431
aS'HLA-B*15:17'
p4432
aS'HLA-B15:17'
p4433
aS'HLA-B:15:17'
p4434
aS'HLA-B1517'
p4435
aS'B*15:17'
p4436
aS'B15:17'
p4437
aS'B:15:17'
p4438
aS'B1517'
p4439
aS'HLA-B*18:01'
p4440
aS'HLA-B18:01'
p4441
aS'HLA-B:18:01'
p4442
aS'HLA-B1801'
p4443
aS'B*18:01'
p4444
aS'B18:01'
p4445
aS'B:18:01'
p4446
aS'B1801'
p4447
aS'HLA-B*27:02'
p4448
aS'HLA-B27:02'
p4449
aS'HLA-B:27:02'
p4450
aS'HLA-B2702'
p4451
aS'B*27:02'
p4452
aS'B27:02'
p4453
aS'B:27:02'
p4454
aS'B2702'
p4455
aS'HLA-B*27:03'
p4456
aS'HLA-B27:03'
p4457
aS'HLA-B:27:03'
p4458
aS'HLA-B2703'
p4459
aS'B*27:03'
p4460
aS'B27:03'
p4461
aS'B:27:03'
p4462
aS'B2703'
p4463
aS'HLA-B*27:04'
p4464
aS'HLA-B27:04'
p4465
aS'HLA-B:27:04'
p4466
aS'HLA-B2704'
p4467
aS'B*27:04'
p4468
aS'B27:04'
p4469
aS'B:27:04'
p4470
aS'B2704'
p4471
aS'HLA-B*27:05'
p4472
aS'HLA-B27:05'
p4473
aS'HLA-B:27:05'
p4474
aS'HLA-B2705'
p4475
aS'B*27:05'
p4476
aS'B27:05'
p4477
aS'B:27:05'
p4478
aS'B2705'
p4479
aS'HLA-B*27:06'
p4480
aS'HLA-B27:06'
p4481
aS'HLA-B:27:06'
p4482
aS'HLA-B2706'
p4483
aS'B*27:06'
p4484
aS'B27:06'
p4485
aS'B:27:06'
p4486
aS'B2706'
p4487
aS'HLA-B*35:01'
p4488
aS'HLA-B35:01'
p4489
aS'HLA-B:35:01'
p4490
aS'HLA-B3501'
p4491
aS'B*35:01'
p4492
aS'B35:01'
p4493
aS'B:35:01'
p4494
aS'B3501'
p4495
aS'HLA-B*35:03'
p4496
aS'HLA-B35:03'
p4497
aS'HLA-B:35:03'
p4498
aS'HLA-B3503'
p4499
aS'B*35:03'
p4500
aS'B35:03'
p4501
aS'B:35:03'
p4502
aS'B3503'
p4503
aS'HLA-B*37:01'
p4504
aS'HLA-B37:01'
p4505
aS'HLA-B:37:01'
p4506
aS'HLA-B3701'
p4507
aS'B*37:01'
p4508
aS'B37:01'
p4509
aS'B:37:01'
p4510
aS'B3701'
p4511
aS'HLA-B*38:01'
p4512
aS'HLA-B38:01'
p4513
aS'HLA-B:38:01'
p4514
aS'HLA-B3801'
p4515
aS'B*38:01'
p4516
aS'B38:01'
p4517
aS'B:38:01'
p4518
aS'B3801'
p4519
aS'HLA-B*39:01'
p4520
aS'HLA-B39:01'
p4521
aS'HLA-B:39:01'
p4522
aS'HLA-B3901'
p4523
aS'B*39:01'
p4524
aS'B39:01'
p4525
aS'B:39:01'
p4526
aS'B3901'
p4527
aS'HLA-B*39:06'
p4528
aS'HLA-B39:06'
p4529
aS'HLA-B:39:06'
p4530
aS'HLA-B3906'
p4531
aS'B*39:06'
p4532
aS'B39:06'
p4533
aS'B:39:06'
p4534
aS'B3906'
p4535
aS'HLA-B*40:01'
p4536
aS'HLA-B40:01'
p4537
aS'HLA-B:40:01'
p4538
aS'HLA-B4001'
p4539
aS'B*40:01'
p4540
aS'B40:01'
p4541
aS'B:40:01'
p4542
aS'B4001'
p4543
aS'HLA-B*40:02'
p4544
aS'HLA-B40:02'
p4545
aS'HLA-B:40:02'
p4546
aS'HLA-B4002'
p4547
aS'B*40:02'
p4548
aS'B40:02'
p4549
aS'B:40:02'
p4550
aS'B4002'
p4551
aS'HLA-B*42:01'
p4552
aS'HLA-B42:01'
p4553
aS'HLA-B:42:01'
p4554
aS'HLA-B4201'
p4555
aS'B*42:01'
p4556
aS'B42:01'
p4557
aS'B:42:01'
p4558
aS'B4201'
p4559
aS'HLA-B*44:02'
p4560
aS'HLA-B44:02'
p4561
aS'HLA-B:44:02'
p4562
aS'HLA-B4402'
p4563
aS'B*44:02'
p4564
aS'B44:02'
p4565
aS'B:44:02'
p4566
aS'B4402'
p4567
aS'HLA-B*44:03'
p4568
aS'HLA-B44:03'
p4569
aS'HLA-B:44:03'
p4570
aS'HLA-B4403'
p4571
aS'B*44:03'
p4572
aS'B44:03'
p4573
aS'B:44:03'
p4574
aS'B4403'
p4575
aS'HLA-B*45:01'
p4576
aS'HLA-B45:01'
p4577
aS'HLA-B:45:01'
p4578
aS'HLA-B4501'
p4579
aS'B*45:01'
p4580
aS'B45:01'
p4581
aS'B:45:01'
p4582
aS'B4501'
p4583
aS'HLA-B*46:01'
p4584
aS'HLA-B46:01'
p4585
aS'HLA-B:46:01'
p4586
aS'HLA-B4601'
p4587
aS'B*46:01'
p4588
aS'B46:01'
p4589
aS'B:46:01'
p4590
aS'B4601'
p4591
aS'HLA-B*48:01'
p4592
aS'HLA-B48:01'
p4593
aS'HLA-B:48:01'
p4594
aS'HLA-B4801'
p4595
aS'B*48:01'
p4596
aS'B48:01'
p4597
aS'B:48:01'
p4598
aS'B4801'
p4599
aS'HLA-B*51:01'
p4600
aS'HLA-B51:01'
p4601
aS'HLA-B:51:01'
p4602
aS'HLA-B5101'
p4603
aS'B*51:01'
p4604
aS'B51:01'
p4605
aS'B:51:01'
p4606
aS'B5101'
p4607
aS'HLA-B*53:01'
p4608
aS'HLA-B53:01'
p4609
aS'HLA-B:53:01'
p4610
aS'HLA-B5301'
p4611
aS'B*53:01'
p4612
aS'B53:01'
p4613
aS'B:53:01'
p4614
aS'B5301'
p4615
aS'HLA-B*54:01'
p4616
aS'HLA-B54:01'
p4617
aS'HLA-B:54:01'
p4618
aS'HLA-B5401'
p4619
aS'B*54:01'
p4620
aS'B54:01'
p4621
aS'B:54:01'
p4622
aS'B5401'
p4623
aS'HLA-B*57:01'
p4624
aS'HLA-B57:01'
p4625
aS'HLA-B:57:01'
p4626
aS'HLA-B5701'
p4627
aS'B*57:01'
p4628
aS'B57:01'
p4629
aS'B:57:01'
p4630
aS'B5701'
p4631
aS'HLA-B*58:01'
p4632
aS'HLA-B58:01'
p4633
aS'HLA-B:58:01'
p4634
aS'HLA-B5801'
p4635
aS'B*58:01'
p4636
aS'B58:01'
p4637
aS'B:58:01'
p4638
aS'B5801'
p4639
aS'HLA-B*83:01'
p4640
aS'HLA-B83:01'
p4641
aS'HLA-B:83:01'
p4642
aS'HLA-B8301'
p4643
aS'B*83:01'
p4644
aS'B83:01'
p4645
aS'B:83:01'
p4646
aS'B8301'
p4647
aS'HLA-C*03:03'
p4648
aS'HLA-C03:03'
p4649
aS'HLA-C:03:03'
p4650
aS'HLA-C0303'
p4651
aS'C*03:03'
p4652
aS'C03:03'
p4653
aS'C:03:03'
p4654
aS'C0303'
p4655
aS'HLA-C*04:01'
p4656
aS'HLA-C04:01'
p4657
aS'HLA-C:04:01'
p4658
aS'HLA-C0401'
p4659
aS'C*04:01'
p4660
aS'C04:01'
p4661
aS'C:04:01'
p4662
aS'C0401'
p4663
aS'HLA-C*05:01'
p4664
aS'HLA-C05:01'
p4665
aS'HLA-C:05:01'
p4666
aS'HLA-C0501'
p4667
aS'C*05:01'
p4668
aS'C05:01'
p4669
aS'C:05:01'
p4670
aS'C0501'
p4671
aS'HLA-C*06:02'
p4672
aS'HLA-C06:02'
p4673
aS'HLA-C:06:02'
p4674
aS'HLA-C0602'
p4675
aS'C*06:02'
p4676
aS'C06:02'
p4677
aS'C:06:02'
p4678
aS'C0602'
p4679
aS'HLA-C*07:02'
p4680
aS'HLA-C07:02'
p4681
aS'HLA-C:07:02'
p4682
aS'HLA-C0702'
p4683
aS'C*07:02'
p4684
aS'C07:02'
p4685
aS'C:07:02'
p4686
aS'C0702'
p4687
aS'HLA-C*08:02'
p4688
aS'HLA-C08:02'
p4689
aS'HLA-C:08:02'
p4690
aS'HLA-C0802'
p4691
aS'C*08:02'
p4692
aS'C08:02'
p4693
aS'C:08:02'
p4694
aS'C0802'
p4695
aS'HLA-C*12:03'
p4696
aS'HLA-C12:03'
p4697
aS'HLA-C:12:03'
p4698
aS'HLA-C1203'
p4699
aS'C*12:03'
p4700
aS'C12:03'
p4701
aS'C:12:03'
p4702
aS'C1203'
p4703
aS'HLA-C*14:02'
p4704
aS'HLA-C14:02'
p4705
aS'HLA-C:14:02'
p4706
aS'HLA-C1402'
p4707
aS'C*14:02'
p4708
aS'C14:02'
p4709
aS'C:14:02'
p4710
aS'C1402'
p4711
aS'HLA-C*15:02'
p4712
aS'HLA-C15:02'
p4713
aS'HLA-C:15:02'
p4714
aS'HLA-C1502'
p4715
aS'C*15:02'
p4716
aS'C15:02'
p4717
aS'C:15:02'
p4718
aS'C1502'
p4719
aS'Mamu-A*01:01'
p4720
aS'Mamu-A01:01'
p4721
aS'Mamu-A:01:01'
p4722
aS'Mamu-A0101'
p4723
aS'A*01:01'
p4724
aS'A01:01'
p4725
aS'A:01:01'
p4726
aS'A0101'
p4727
aS'Mamu-A*02:01'
p4728
aS'Mamu-A02:01'
p4729
aS'Mamu-A:02:01'
p4730
aS'Mamu-A0201'
p4731
aS'A*02:01'
p4732
aS'A02:01'
p4733
aS'A:02:01'
p4734
aS'A0201'
p4735
aS'Mamu-A*02:0102'
p4736
aS'Mamu-A02:0102'
p4737
aS'Mamu-A:02:0102'
p4738
aS'Mamu-A020102'
p4739
aS'A*02:0102'
p4740
aS'A02:0102'
p4741
aS'A:02:0102'
p4742
aS'A020102'
p4743
aS'Mamu-A*07:01'
p4744
aS'Mamu-A07:01'
p4745
aS'Mamu-A:07:01'
p4746
aS'Mamu-A0701'
p4747
aS'A*07:01'
p4748
aS'A07:01'
p4749
aS'A:07:01'
p4750
aS'A0701'
p4751
aS'Mamu-A*07:0103'
p4752
aS'Mamu-A07:0103'
p4753
aS'Mamu-A:07:0103'
p4754
aS'Mamu-A070103'
p4755
aS'A*07:0103'
p4756
aS'A07:0103'
p4757
aS'A:07:0103'
p4758
aS'A070103'
p4759
aS'Mamu-A*11:01'
p4760
aS'Mamu-A11:01'
p4761
aS'Mamu-A:11:01'
p4762
aS'Mamu-A1101'
p4763
aS'A*11:01'
p4764
aS'A11:01'
p4765
aS'A:11:01'
p4766
aS'A1101'
p4767
aS'Mamu-A*22:01'
p4768
aS'Mamu-A22:01'
p4769
aS'Mamu-A:22:01'
p4770
aS'Mamu-A2201'
p4771
aS'A*22:01'
p4772
aS'A22:01'
p4773
aS'A:22:01'
p4774
aS'A2201'
p4775
aS'Mamu-A*26:01'
p4776
aS'Mamu-A26:01'
p4777
aS'Mamu-A:26:01'
p4778
aS'Mamu-A2601'
p4779
aS'A*26:01'
p4780
aS'A26:01'
p4781
aS'A:26:01'
p4782
aS'A2601'
p4783
aS'Mamu-B*01:01'
p4784
aS'Mamu-B01:01'
p4785
aS'Mamu-B:01:01'
p4786
aS'Mamu-B0101'
p4787
aS'B*01:01'
p4788
aS'B01:01'
p4789
aS'B:01:01'
p4790
aS'B0101'
p4791
aS'Mamu-B*03:01'
p4792
aS'Mamu-B03:01'
p4793
aS'Mamu-B:03:01'
p4794
aS'Mamu-B0301'
p4795
aS'B*03:01'
p4796
aS'B03:01'
p4797
aS'B:03:01'
p4798
aS'B0301'
p4799
aS'Mamu-B*08:01'
p4800
aS'Mamu-B08:01'
p4801
aS'Mamu-B:08:01'
p4802
aS'Mamu-B0801'
p4803
aS'B*08:01'
p4804
aS'B08:01'
p4805
aS'B:08:01'
p4806
aS'B0801'
p4807
aS'Mamu-B*10:01'
p4808
aS'Mamu-B10:01'
p4809
aS'Mamu-B:10:01'
p4810
aS'Mamu-B1001'
p4811
aS'B*10:01'
p4812
aS'B10:01'
p4813
aS'B:10:01'
p4814
aS'B1001'
p4815
aS'Mamu-B*17:01'
p4816
aS'Mamu-B17:01'
p4817
aS'Mamu-B:17:01'
p4818
aS'Mamu-B1701'
p4819
aS'B*17:01'
p4820
aS'B17:01'
p4821
aS'B:17:01'
p4822
aS'B1701'
p4823
aS'Mamu-B*17:04'
p4824
aS'Mamu-B17:04'
p4825
aS'Mamu-B:17:04'
p4826
aS'Mamu-B1704'
p4827
aS'B*17:04'
p4828
aS'B17:04'
p4829
aS'B:17:04'
p4830
aS'B1704'
p4831
aS'Mamu-B*39:01'
p4832
aS'Mamu-B39:01'
p4833
aS'Mamu-B:39:01'
p4834
aS'Mamu-B3901'
p4835
aS'B*39:01'
p4836
aS'B39:01'
p4837
aS'B:39:01'
p4838
aS'B3901'
p4839
aS'Mamu-B*52:01'
p4840
aS'Mamu-B52:01'
p4841
aS'Mamu-B:52:01'
p4842
aS'Mamu-B5201'
p4843
aS'B*52:01'
p4844
aS'B52:01'
p4845
aS'B:52:01'
p4846
aS'B5201'
p4847
aS'Mamu-B*83:01'
p4848
aS'Mamu-B83:01'
p4849
aS'Mamu-B:83:01'
p4850
aS'Mamu-B8301'
p4851
aS'B*83:01'
p4852
aS'B83:01'
p4853
aS'B:83:01'
p4854
aS'B8301'
p4855
aS'Patr-A*01:01'
p4856
aS'Patr-A01:01'
p4857
aS'Patr-A:01:01'
p4858
aS'Patr-A0101'
p4859
aS'A*01:01'
p4860
aS'A01:01'
p4861
aS'A:01:01'
p4862
aS'A0101'
p4863
aS'Patr-A*04:01'
p4864
aS'Patr-A04:01'
p4865
aS'Patr-A:04:01'
p4866
aS'Patr-A0401'
p4867
aS'A*04:01'
p4868
aS'A04:01'
p4869
aS'A:04:01'
p4870
aS'A0401'
p4871
aS'Patr-A*07:01'
p4872
aS'Patr-A07:01'
p4873
aS'Patr-A:07:01'
p4874
aS'Patr-A0701'
p4875
aS'A*07:01'
p4876
aS'A07:01'
p4877
aS'A:07:01'
p4878
aS'A0701'
p4879
aS'Patr-A*09:01'
p4880
aS'Patr-A09:01'
p4881
aS'Patr-A:09:01'
p4882
aS'Patr-A0901'
p4883
aS'A*09:01'
p4884
aS'A09:01'
p4885
aS'A:09:01'
p4886
aS'A0901'
p4887
aS'Patr-B*01:01'
p4888
aS'Patr-B01:01'
p4889
aS'Patr-B:01:01'
p4890
aS'Patr-B0101'
p4891
aS'B*01:01'
p4892
aS'B01:01'
p4893
aS'B:01:01'
p4894
aS'B0101'
p4895
aS'Patr-B*13:01'
p4896
aS'Patr-B13:01'
p4897
aS'Patr-B:13:01'
p4898
aS'Patr-B1301'
p4899
aS'B*13:01'
p4900
aS'B13:01'
p4901
aS'B:13:01'
p4902
aS'B1301'
p4903
aS'Patr-B*24:01'
p4904
aS'Patr-B24:01'
p4905
aS'Patr-B:24:01'
p4906
aS'Patr-B2401'
p4907
aS'B*24:01'
p4908
aS'B24:01'
p4909
aS'B:24:01'
p4910
aS'B2401'
p4911
asS'netMHC4'
p4912
(lp4913
S'BoLA-AW10'
p4914
aS'BoLA-D18.4'
p4915
aS'BoLA-HD6'
p4916
aS'BoLA-JSP.1'
p4917
aS'BoLA-T2C'
p4918
aS'BoLA-T2a'
p4919
aS'BoLA-T2b'
p4920
aS'H-2-Db'
p4921
aS'H-2-Dd'
p4922
aS'H-2-Kb'
p4923
aS'H-2-Kd'
p4924
aS'H-2-Kk'
p4925
aS'H-2-Ld'
p4926
aS'HLA-A0101'
p4927
aS'HLA-A0201'
p4928
aS'HLA-A0202'
p4929
aS'HLA-A0203'
p4930
aS'HLA-A0205'
p4931
aS'HLA-A0206'
p4932
aS'HLA-A0207'
p4933
aS'HLA-A0211'
p4934
aS'HLA-A0212'
p4935
aS'HLA-A0216'
p4936
aS'HLA-A0217'
p4937
aS'HLA-A0219'
p4938
aS'HLA-A0250'
p4939
aS'HLA-A0301'
p4940
aS'HLA-A0302'
p4941
aS'HLA-A0319'
p4942
aS'HLA-A1101'
p4943
aS'HLA-A2301'
p4944
aS'HLA-A2402'
p4945
aS'HLA-A2403'
p4946
aS'HLA-A2501'
p4947
aS'HLA-A2601'
p4948
aS'HLA-A2602'
p4949
aS'HLA-A2603'
p4950
aS'HLA-A2902'
p4951
aS'HLA-A3001'
p4952
aS'HLA-A3002'
p4953
aS'HLA-A3101'
p4954
aS'HLA-A3201'
p4955
aS'HLA-A3207'
p4956
aS'HLA-A3215'
p4957
aS'HLA-A3301'
p4958
aS'HLA-A6601'
p4959
aS'HLA-A6801'
p4960
aS'HLA-A6802'
p4961
aS'HLA-A6823'
p4962
aS'HLA-A6901'
p4963
aS'HLA-A8001'
p4964
aS'HLA-B0702'
p4965
aS'HLA-B0801'
p4966
aS'HLA-B0802'
p4967
aS'HLA-B0803'
p4968
aS'HLA-B1401'
p4969
aS'HLA-B1402'
p4970
aS'HLA-B1501'
p4971
aS'HLA-B1502'
p4972
aS'HLA-B1503'
p4973
aS'HLA-B1509'
p4974
aS'HLA-B1517'
p4975
aS'HLA-B1801'
p4976
aS'HLA-B2705'
p4977
aS'HLA-B2720'
p4978
aS'HLA-B3501'
p4979
aS'HLA-B3503'
p4980
aS'HLA-B3701'
p4981
aS'HLA-B3801'
p4982
aS'HLA-B3901'
p4983
aS'HLA-B4001'
p4984
aS'HLA-B4002'
p4985
aS'HLA-B4013'
p4986
aS'HLA-B4201'
p4987
aS'HLA-B4402'
p4988
aS'HLA-B4403'
p4989
aS'HLA-B4501'
p4990
aS'HLA-B4506'
p4991
aS'HLA-B4601'
p4992
aS'HLA-B4801'
p4993
aS'HLA-B5101'
p4994
aS'HLA-B5301'
p4995
aS'HLA-B5401'
p4996
aS'HLA-B5701'
p4997
aS'HLA-B5703'
p4998
aS'HLA-B5801'
p4999
aS'HLA-B5802'
p5000
aS'HLA-B7301'
p5001
aS'HLA-B8101'
p5002
aS'HLA-B8301'
p5003
aS'HLA-C0303'
p5004
aS'HLA-C0401'
p5005
aS'HLA-C0501'
p5006
aS'HLA-C0602'
p5007
aS'HLA-C0701'
p5008
aS'HLA-C0702'
p5009
aS'HLA-C0802'
p5010
aS'HLA-C1203'
p5011
aS'HLA-C1402'
p5012
aS'HLA-C1502'
p5013
aS'HLA-E0101'
p5014
aS'HLA-E0103'
p5015
aS'Mamu-A01'
p5016
aS'Mamu-A02'
p5017
aS'Mamu-A07'
p5018
aS'Mamu-A11'
p5019
aS'Mamu-A20102'
p5020
aS'Mamu-A2201'
p5021
aS'Mamu-A2601'
p5022
aS'Mamu-A70103'
p5023
aS'Mamu-B01'
p5024
aS'Mamu-B03'
p5025
aS'Mamu-B08'
p5026
aS'Mamu-B1001'
p5027
aS'Mamu-B17'
p5028
aS'Mamu-B3901'
p5029
aS'Mamu-B52'
p5030
aS'Mamu-B6601'
p5031
aS'Mamu-B8301'
p5032
aS'Mamu-B8701'
p5033
aS'Patr-A0101'
p5034
aS'Patr-A0301'
p5035
aS'Patr-A0401'
p5036
aS'Patr-A0701'
p5037
aS'Patr-A0901'
p5038
aS'Patr-B0101'
p5039
aS'Patr-B1301'
p5040
aS'Patr-B2401'
p5041
aS'SLA-10401'
p5042
aS'SLA-10701'
p5043
aS'SLA-20401'
p5044
aS'SLA-30401'
p5045
asS'mhcflurry'
p5046
g4057
sS'netMHCpan4'
p5047
g4057
sS'pickpocket1'
p5048
g4057
sS'mhcnuggets_mhcII'
p5049
(lp5050
S'Eqca-N06:02'
p5051
aS'HLA-B15:01'
p5052
aS'HLA-DQA106:01-DQB104:02'
p5053
aS'HLA-B44:05'
p5054
aS'HLA-B15:03'
p5055
aS'HLA-B44:01'
p5056
aS'HLA-B12:01'
p5057
aS'HLA-B44:03'
p5058
aS'BoLA-641:01'
p5059
aS'HLA-C03:03'
p5060
aS'HLA-DRB107:01'
p5061
aS'BoLA-DRB311:01'
p5062
aS'HLA-A11:02'
p5063
aS'HLA-C03:04'
p5064
aS'HLA-DRA01:01-DRB114:54'
p5065
aS'HLA-A69:01'
p5066
aS'HLA-DRB115:02'
p5067
aS'HLA-DRA01:01-DRB301:01'
p5068
aS'Mamu-B52:01'
p5069
aS'HLA-B27:06'
p5070
aS'HLA-B27:05'
p5071
aS'HLA-B27:04'
p5072
aS'HLA-B27:03'
p5073
aS'HLA-B27:02'
p5074
aS'HLA-B27:01'
p5075
aS'HLA-B15:17'
p5076
aS'HLA-B15:16'
p5077
aS'HLA-B15:10'
p5078
aS'HLA-B27:09'
p5079
aS'HLA-DRA01:01-DRB104:04'
p5080
aS'HLA-DRB303:01'
p5081
aS'HLA-DRA01:01-DRB115:01'
p5082
aS'H-2-IAu'
p5083
aS'HLA-DQA104:01-DQB104:02'
p5084
aS'HLA-DPA101:03-DPB103:01'
p5085
aS'HLA-B42:02'
p5086
aS'HLA-DPB105:01'
p5087
aS'HLA-DRB302:02'
p5088
aS'HLA-DRA01:01-DRB101:01'
p5089
aS'HLA-B38:01'
p5090
aS'HLA-C15:02'
p5091
aS'HLA-DRB109:01'
p5092
aS'H-2-IEd'
p5093
aS'HLA-DQA102:01-DQB104:02'
p5094
aS'H-2-IEb'
p5095
aS'HLA-DQA101:02-DQB105:01'
p5096
aS'HLA-B40:01'
p5097
aS'Patr-B01:01'
p5098
aS'HLA-B42:01'
p5099
aS'H-2-IEk'
p5100
aS'HLA-B40:02'
p5101
aS'HLA-B45:06'
p5102
aS'Patr-A01:01'
p5103
aS'HLA-A26:01'
p5104
aS'HLA-C12:03'
p5105
aS'H-2-IEr'
p5106
aS'H-2-IEp'
p5107
aS'HLA-A32:01'
p5108
aS'HLA-DRB110:01'
p5109
aS'HLA-A26:03'
p5110
aS'Patr-B17:01'
p5111
aS'HLA-A32:07'
p5112
aS'HLA-DRB111:01'
p5113
aS'HLA-A26:02'
p5114
aS'HLA-DRB116:02'
p5115
aS'HLA-DRA01:01-DRB501:01'
p5116
aS'HLA-A68:23'
p5117
aS'Patr-A04:01'
p5118
aS'HLA-BF01:0201'
p5119
aS'HLA-DPB109:01'
p5120
aS'HLA-B73:01'
p5121
aS'HLA-DRB108:01'
p5122
aS'BoLA-613:01'
p5123
aS'HLA-DQB105:01'
p5124
aS'HLA-DQB105:02'
p5125
aS'HLA-DQB105:03'
p5126
aS'SLA-204:01'
p5127
aS'HLA-DQA103:02-DQB103:01'
p5128
aS'BoLA-208:01'
p5129
aS'HLA-C08:02'
p5130
aS'HLA-C08:01'
p5131
aS'HLA-BF02:0401'
p5132
aS'Mamu-A07:01'
p5133
aS'HLA-A11:01'
p5134
aS'Mamu-B39:01'
p5135
aS'HLA-B18:01'
p5136
aS'HLA-DQA102:01-DQB103:01'
p5137
aS'HLA-A02:11'
p5138
aS'HLA-A02:12'
p5139
aS'HLA-A01:01'
p5140
aS'HLA-A02:14'
p5141
aS'HLA-A02:16'
p5142
aS'HLA-A02:17'
p5143
aS'HLA-B14:01'
p5144
aS'HLA-A02:19'
p5145
aS'HLA-A32:15'
p5146
aS'HLA-B14:02'
p5147
aS'HLA-DRB301:01'
p5148
aS'HLA-A74:01'
p5149
aS'HLA-A23:01'
p5150
aS'HLA-A80:01'
p5151
aS'Patr-B09:01'
p5152
aS'Gogo-B01:01'
p5153
aS'BoLA-DRB312:01'
p5154
aS'HLA-DRB113:04'
p5155
aS'HLA-DQA103:02-DQB104:01'
p5156
aS'HLA-DQB102:01'
p5157
aS'HLA-DRB113:03'
p5158
aS'HLA-DQB102:02'
p5159
aS'HLA-DPA102:01-DPB105:01'
p5160
aS'Mamu-B65:02'
p5161
aS'HLA-DPA101:03-DPB104:01'
p5162
aS'HLA-DPA101:03-DPB104:02'
p5163
aS'HLA-DRB101:01'
p5164
aS'HLA-B48:01'
p5165
aS'HLA-DRB101:03'
p5166
aS'HLA-BF02:1201'
p5167
aS'HLA-DQA105:01-DQB103:02'
p5168
aS'HLA-DQA105:01-DQB103:03'
p5169
aS'HLA-DQA105:01-DQB103:01'
p5170
aS'HLA-DQA103:01-DQB103:01'
p5171
aS'HLA-B45:01'
p5172
aS'Mamu-A07:0103'
p5173
aS'HLA-B53:01'
p5174
aS'HLA-DRB103:05'
p5175
aS'HLA-DRA01:01-DRB111:01'
p5176
aS'HLA-DRB103:03'
p5177
aS'HLA-B57:01'
p5178
aS'HLA-DRB103:01'
p5179
aS'HLA-B57:03'
p5180
aS'HLA-DRB111:04'
p5181
aS'HLA-A02:06'
p5182
aS'HLA-A02:05'
p5183
aS'HLA-A02:04'
p5184
aS'HLA-A02:03'
p5185
aS'HLA-B57:02'
p5186
aS'HLA-A02:01'
p5187
aS'HLA-DRB111:03'
p5188
aS'HLA-B35:08'
p5189
aS'HLA-DQB104:02'
p5190
aS'HLA-B54:01'
p5191
aS'HLA-A02:09'
p5192
aS'HLA-A02:08'
p5193
aS'HLA-A02:07'
p5194
aS'HLA-A68:01'
p5195
aS'HLA-B46:01'
p5196
aS'HLA-DPB102:01'
p5197
aS'HLA-B35:01'
p5198
aS'HLA-DPB114:01'
p5199
aS'HLA-B52:01'
p5200
aS'HLA-A29:01'
p5201
aS'HLA-A29:02'
p5202
aS'HLA-DRB104:11'
p5203
aS'HLA-B44:02'
p5204
aS'H-2-Kk'
p5205
aS'HLA-B35:03'
p5206
aS'Mamu-DRB104:06'
p5207
aS'Mamu-B10:01'
p5208
aS'H-2-Kb'
p5209
aS'HLA-DRA01:01-DRB104:01'
p5210
aS'HLA-A02:02'
p5211
aS'HLA-DRA01:01-DRB401:03'
p5212
aS'Mamu-A02:01'
p5213
aS'HLA-DRB111:02'
p5214
aS'HLA-A66:01'
p5215
aS'Mamu-B01:01'
p5216
aS'HLA-B08:01'
p5217
aS'HLA-B08:02'
p5218
aS'HLA-B08:03'
p5219
aS'HLA-DQB103:02'
p5220
aS'HLA-C05:01'
p5221
aS'Eqca-101:01'
p5222
aS'Mamu-A22:01'
p5223
aS'HLA-DPB101:01'
p5224
aS'HLA-A24:02'
p5225
aS'HLA-A25:01'
p5226
aS'HLA-DPA102:02-DPB105:01'
p5227
aS'BoLA-A11:01'
p5228
aS'HLA-DQA101:01-DQB105:01'
p5229
aS'HLA-A33:03'
p5230
aS'HLA-DPB104:01'
p5231
aS'HLA-DPB104:02'
p5232
aS'HLA-B07:02'
p5233
aS'H-2-Dd'
p5234
aS'HLA-DRB101:02'
p5235
aS'Patr-A03:01'
p5236
aS'Mamu-B04:01'
p5237
aS'HLA-B83:01'
p5238
aS'HLA-DRA01:01-DRB303:01'
p5239
aS'HLA-DRB104:02'
p5240
aS'HLA-DRB104:03'
p5241
aS'HLA-DQA103:01-DQB102:01'
p5242
aS'HLA-DRB104:01'
p5243
aS'HLA-DRB104:06'
p5244
aS'HLA-DRB104:07'
p5245
aS'HLA-DRB104:04'
p5246
aS'HLA-DRB104:05'
p5247
aS'HLA-DPA103:01-DPB104:02'
p5248
aS'HLA-E01:03'
p5249
aS'H-2-IAk'
p5250
aS'HLA-A24:03'
p5251
aS'HLA-DQA101:03-DQB106:01'
p5252
aS'HLA-CW04:01'
p5253
aS'HLA-A68:02'
p5254
aS'Mamu-DRB01'
p5255
aS'HLA-DRB501:01'
p5256
aS'HLA-A24:01'
p5257
aS'HLA-DQA102:01-DQB103:03'
p5258
aS'Mamu-B08:01'
p5259
aS'Patr-B24:01'
p5260
aS'HLA-DRB114:02'
p5261
aS'HLA-DRB114:01'
p5262
aS'HLA-DPB111:01'
p5263
aS'HLA-B81:01'
p5264
aS'HLA-B15:09'
p5265
aS'H-2-IAs'
p5266
aS'H-2-IAr'
p5267
aS'H-2-IAq'
p5268
aS'H-2-IAp'
p5269
aS'Mamu-A26:01'
p5270
aS'Mamu-B87:01'
p5271
aS'HLA-DQA102:01-DQB102:01'
p5272
aS'HLA-DQA102:01-DQB102:02'
p5273
aS'ELA-A01:01'
p5274
aS'HLA-DRA01:01-DRB109:01'
p5275
aS'Mamu-A01:11'
p5276
aS'HLA-BF02:2101'
p5277
aS'HLA-B62:01'
p5278
aS'HLA-DQA101:04-DQB105:03'
p5279
aS'HLA-DRA01:01-DRB103:01'
p5280
aS'HLA-A03:01'
p5281
aS'HLA-A03:02'
p5282
aS'Patr-A06:01'
p5283
aS'HLA-DQA101:02-DQB106:02'
p5284
aS'SLA-104:01'
p5285
aS'HLA-B39:06'
p5286
aS'HLA-DRB115:01'
p5287
aS'Patr-A06:02'
p5288
aS'HLA-DQA101:02-DQB106:04'
p5289
aS'HLA-B51:01'
p5290
aS'HLA-DRB103:02'
p5291
aS'Patr-A05:01'
p5292
aS'Mamu-B83:01'
p5293
aS'HLA-DQA101:03-DQB106:03'
p5294
aS'HLA-DRA01:01-DRB113:01'
p5295
aS'H-2-Dk'
p5296
aS'BoLA-DRB302:01'
p5297
aS'H-2-Db'
p5298
aS'HLA-A33:01'
p5299
aS'HLA-DRB116:01'
p5300
aS'HLA-DQB103:01'
p5301
aS'HLA-DRB501:02'
p5302
aS'HLA-DQA103:01-DQB104:01'
p5303
aS'HLA-DRB113:02'
p5304
aS'HLA-DRB108:02'
p5305
aS'HLA-DRB108:03'
p5306
aS'HLA-RT11:01'
p5307
aS'HLA-DRB401:03'
p5308
aS'HLA-B58:01'
p5309
aS'HLA-B58:02'
p5310
aS'BoLA-212:01'
p5311
aS'__init__'
p5312
aS'HLA-DQA101:02-DQB105:02'
p5313
aS'HLA-B55:02'
p5314
aS'HLA-B15:42'
p5315
aS'HLA-DRB401:01'
p5316
aS'HLA-A02:50'
p5317
aS'Mamu-A01:01'
p5318
aS'Mamu-A01:02'
p5319
aS'HLA-B37:01'
p5320
aS'Patr-A09:01'
p5321
aS'HLA-DPA102:01-DPB101:01'
p5322
aS'HLA-A03:19'
p5323
aS'Mamu-B66:01'
p5324
aS'HLA-B27:20'
p5325
aS'HLA-DRB115:03'
p5326
aS'HLA-SLA01'
p5327
aS'Mamu-B17:04'
p5328
aS'HLA-C06:02'
p5329
aS'H-2-Ld'
p5330
aS'HLA-DPA101:03-DPB102:01'
p5331
aS'Mamu-B17:01'
p5332
aS'DLA-88508:01'
p5333
aS'SLA-302:02'
p5334
aS'H-2-IAb'
p5335
aS'HLA-DRA01:01-DRB107:01'
p5336
aS'HLA-DQB106:02'
p5337
aS'HLA-DQB103:19'
p5338
aS'HLA-RT01:01'
p5339
aS'HLA-DQA105:01-DQB102:01'
p5340
aS'HLA-DQA105:01-DQB104:02'
p5341
aS'HLA-DQA103:01-DQB103:02'
p5342
aS'H-2-Lq'
p5343
aS'HLA-B61:01'
p5344
aS'HLA-A30:02'
p5345
aS'Patr-A07:01'
p5346
aS'HLA-A30:01'
p5347
aS'Mamu-A11:01'
p5348
aS'HLA-A31:01'
p5349
aS'HLA-B55:01'
p5350
aS'HLA-BF02:0201'
p5351
aS'HLA-B07:01'
p5352
aS'HLA-B40:13'
p5353
aS'HLA-C04:01'
p5354
aS'H-2-IAd'
p5355
aS'HLA-DRA01:01-DRB108:01'
p5356
aS'HLA-DPB103:01'
p5357
aS'HLA-C14:02'
p5358
aS'Mamu-B03:01'
p5359
aS'HLA-C07:02'
p5360
aS'HLA-DRA01:01-DRB302:02'
p5361
aS'HLA-C07:01'
p5362
aS'Mamu-A02:0102'
p5363
aS'HLA-DPB120:01'
p5364
aS'Patr-B13:01'
p5365
aS'HLA-B15:02'
p5366
aS'HLA-DQA105:05-DQB103:01'
p5367
aS'H-2-Kd'
p5368
aS'HLA-DQA103:03-DQB104:02'
p5369
aS'HLA-B39:01'
p5370
aS'HLA-DRB112:01'
p5371
aS'HLA-DRB112:02'
p5372
aS'HLA-DRB113:01'
p5373
asS'netMHCpan3'
p5374
(lp5375
S'HLA-A01:01'
p5376
aS'HLA-A01:02'
p5377
aS'HLA-A01:03'
p5378
aS'HLA-A01:06'
p5379
aS'HLA-A01:07'
p5380
aS'HLA-A01:08'
p5381
aS'HLA-A01:09'
p5382
aS'HLA-A01:10'
p5383
aS'HLA-A01:12'
p5384
aS'HLA-A01:13'
p5385
aS'HLA-A01:14'
p5386
aS'HLA-A01:17'
p5387
aS'HLA-A01:19'
p5388
aS'HLA-A01:20'
p5389
aS'HLA-A01:21'
p5390
aS'HLA-A01:23'
p5391
aS'HLA-A01:24'
p5392
aS'HLA-A01:25'
p5393
aS'HLA-A01:26'
p5394
aS'HLA-A01:28'
p5395
aS'HLA-A01:29'
p5396
aS'HLA-A01:30'
p5397
aS'HLA-A01:32'
p5398
aS'HLA-A01:33'
p5399
aS'HLA-A01:35'
p5400
aS'HLA-A01:36'
p5401
aS'HLA-A01:37'
p5402
aS'HLA-A01:38'
p5403
aS'HLA-A01:39'
p5404
aS'HLA-A01:40'
p5405
aS'HLA-A01:41'
p5406
aS'HLA-A01:42'
p5407
aS'HLA-A01:43'
p5408
aS'HLA-A01:44'
p5409
aS'HLA-A01:45'
p5410
aS'HLA-A01:46'
p5411
aS'HLA-A01:47'
p5412
aS'HLA-A01:48'
p5413
aS'HLA-A01:49'
p5414
aS'HLA-A01:50'
p5415
aS'HLA-A01:51'
p5416
aS'HLA-A01:54'
p5417
aS'HLA-A01:55'
p5418
aS'HLA-A01:58'
p5419
aS'HLA-A01:59'
p5420
aS'HLA-A01:60'
p5421
aS'HLA-A01:61'
p5422
aS'HLA-A01:62'
p5423
aS'HLA-A01:63'
p5424
aS'HLA-A01:64'
p5425
aS'HLA-A01:65'
p5426
aS'HLA-A01:66'
p5427
aS'HLA-A02:01'
p5428
aS'HLA-A02:02'
p5429
aS'HLA-A02:03'
p5430
aS'HLA-A02:04'
p5431
aS'HLA-A02:05'
p5432
aS'HLA-A02:06'
p5433
aS'HLA-A02:07'
p5434
aS'HLA-A02:08'
p5435
aS'HLA-A02:09'
p5436
aS'HLA-A02:10'
p5437
aS'HLA-A02:11'
p5438
aS'HLA-A02:12'
p5439
aS'HLA-A02:13'
p5440
aS'HLA-A02:14'
p5441
aS'HLA-A02:16'
p5442
aS'HLA-A02:17'
p5443
aS'HLA-A02:18'
p5444
aS'HLA-A02:19'
p5445
aS'HLA-A02:20'
p5446
aS'HLA-A02:21'
p5447
aS'HLA-A02:22'
p5448
aS'HLA-A02:24'
p5449
aS'HLA-A02:25'
p5450
aS'HLA-A02:26'
p5451
aS'HLA-A02:27'
p5452
aS'HLA-A02:28'
p5453
aS'HLA-A02:29'
p5454
aS'HLA-A02:30'
p5455
aS'HLA-A02:31'
p5456
aS'HLA-A02:33'
p5457
aS'HLA-A02:34'
p5458
aS'HLA-A02:35'
p5459
aS'HLA-A02:36'
p5460
aS'HLA-A02:37'
p5461
aS'HLA-A02:38'
p5462
aS'HLA-A02:39'
p5463
aS'HLA-A02:40'
p5464
aS'HLA-A02:41'
p5465
aS'HLA-A02:42'
p5466
aS'HLA-A02:44'
p5467
aS'HLA-A02:45'
p5468
aS'HLA-A02:46'
p5469
aS'HLA-A02:47'
p5470
aS'HLA-A02:48'
p5471
aS'HLA-A02:49'
p5472
aS'HLA-A02:50'
p5473
aS'HLA-A02:51'
p5474
aS'HLA-A02:52'
p5475
aS'HLA-A02:54'
p5476
aS'HLA-A02:55'
p5477
aS'HLA-A02:56'
p5478
aS'HLA-A02:57'
p5479
aS'HLA-A02:58'
p5480
aS'HLA-A02:59'
p5481
aS'HLA-A02:60'
p5482
aS'HLA-A02:61'
p5483
aS'HLA-A02:62'
p5484
aS'HLA-A02:63'
p5485
aS'HLA-A02:64'
p5486
aS'HLA-A02:65'
p5487
aS'HLA-A02:66'
p5488
aS'HLA-A02:67'
p5489
aS'HLA-A02:68'
p5490
aS'HLA-A02:69'
p5491
aS'HLA-A02:70'
p5492
aS'HLA-A02:71'
p5493
aS'HLA-A02:72'
p5494
aS'HLA-A02:73'
p5495
aS'HLA-A02:74'
p5496
aS'HLA-A02:75'
p5497
aS'HLA-A02:76'
p5498
aS'HLA-A02:77'
p5499
aS'HLA-A02:78'
p5500
aS'HLA-A02:79'
p5501
aS'HLA-A02:80'
p5502
aS'HLA-A02:81'
p5503
aS'HLA-A02:84'
p5504
aS'HLA-A02:85'
p5505
aS'HLA-A02:86'
p5506
aS'HLA-A02:87'
p5507
aS'HLA-A02:89'
p5508
aS'HLA-A02:90'
p5509
aS'HLA-A02:91'
p5510
aS'HLA-A02:92'
p5511
aS'HLA-A02:93'
p5512
aS'HLA-A02:95'
p5513
aS'HLA-A02:96'
p5514
aS'HLA-A02:97'
p5515
aS'HLA-A02:99'
p5516
aS'HLA-A02:101'
p5517
aS'HLA-A02:102'
p5518
aS'HLA-A02:103'
p5519
aS'HLA-A02:104'
p5520
aS'HLA-A02:105'
p5521
aS'HLA-A02:106'
p5522
aS'HLA-A02:107'
p5523
aS'HLA-A02:108'
p5524
aS'HLA-A02:109'
p5525
aS'HLA-A02:110'
p5526
aS'HLA-A02:111'
p5527
aS'HLA-A02:112'
p5528
aS'HLA-A02:114'
p5529
aS'HLA-A02:115'
p5530
aS'HLA-A02:116'
p5531
aS'HLA-A02:117'
p5532
aS'HLA-A02:118'
p5533
aS'HLA-A02:119'
p5534
aS'HLA-A02:120'
p5535
aS'HLA-A02:121'
p5536
aS'HLA-A02:122'
p5537
aS'HLA-A02:123'
p5538
aS'HLA-A02:124'
p5539
aS'HLA-A02:126'
p5540
aS'HLA-A02:127'
p5541
aS'HLA-A02:128'
p5542
aS'HLA-A02:129'
p5543
aS'HLA-A02:130'
p5544
aS'HLA-A02:131'
p5545
aS'HLA-A02:132'
p5546
aS'HLA-A02:133'
p5547
aS'HLA-A02:134'
p5548
aS'HLA-A02:135'
p5549
aS'HLA-A02:136'
p5550
aS'HLA-A02:137'
p5551
aS'HLA-A02:138'
p5552
aS'HLA-A02:139'
p5553
aS'HLA-A02:140'
p5554
aS'HLA-A02:141'
p5555
aS'HLA-A02:142'
p5556
aS'HLA-A02:143'
p5557
aS'HLA-A02:144'
p5558
aS'HLA-A02:145'
p5559
aS'HLA-A02:146'
p5560
aS'HLA-A02:147'
p5561
aS'HLA-A02:148'
p5562
aS'HLA-A02:149'
p5563
aS'HLA-A02:150'
p5564
aS'HLA-A02:151'
p5565
aS'HLA-A02:152'
p5566
aS'HLA-A02:153'
p5567
aS'HLA-A02:154'
p5568
aS'HLA-A02:155'
p5569
aS'HLA-A02:156'
p5570
aS'HLA-A02:157'
p5571
aS'HLA-A02:158'
p5572
aS'HLA-A02:159'
p5573
aS'HLA-A02:160'
p5574
aS'HLA-A02:161'
p5575
aS'HLA-A02:162'
p5576
aS'HLA-A02:163'
p5577
aS'HLA-A02:164'
p5578
aS'HLA-A02:165'
p5579
aS'HLA-A02:166'
p5580
aS'HLA-A02:167'
p5581
aS'HLA-A02:168'
p5582
aS'HLA-A02:169'
p5583
aS'HLA-A02:170'
p5584
aS'HLA-A02:171'
p5585
aS'HLA-A02:172'
p5586
aS'HLA-A02:173'
p5587
aS'HLA-A02:174'
p5588
aS'HLA-A02:175'
p5589
aS'HLA-A02:176'
p5590
aS'HLA-A02:177'
p5591
aS'HLA-A02:178'
p5592
aS'HLA-A02:179'
p5593
aS'HLA-A02:180'
p5594
aS'HLA-A02:181'
p5595
aS'HLA-A02:182'
p5596
aS'HLA-A02:183'
p5597
aS'HLA-A02:184'
p5598
aS'HLA-A02:185'
p5599
aS'HLA-A02:186'
p5600
aS'HLA-A02:187'
p5601
aS'HLA-A02:188'
p5602
aS'HLA-A02:189'
p5603
aS'HLA-A02:190'
p5604
aS'HLA-A02:191'
p5605
aS'HLA-A02:192'
p5606
aS'HLA-A02:193'
p5607
aS'HLA-A02:194'
p5608
aS'HLA-A02:195'
p5609
aS'HLA-A02:196'
p5610
aS'HLA-A02:197'
p5611
aS'HLA-A02:198'
p5612
aS'HLA-A02:199'
p5613
aS'HLA-A02:200'
p5614
aS'HLA-A02:201'
p5615
aS'HLA-A02:202'
p5616
aS'HLA-A02:203'
p5617
aS'HLA-A02:204'
p5618
aS'HLA-A02:205'
p5619
aS'HLA-A02:206'
p5620
aS'HLA-A02:207'
p5621
aS'HLA-A02:208'
p5622
aS'HLA-A02:209'
p5623
aS'HLA-A02:210'
p5624
aS'HLA-A02:211'
p5625
aS'HLA-A02:212'
p5626
aS'HLA-A02:213'
p5627
aS'HLA-A02:214'
p5628
aS'HLA-A02:215'
p5629
aS'HLA-A02:216'
p5630
aS'HLA-A02:217'
p5631
aS'HLA-A02:218'
p5632
aS'HLA-A02:219'
p5633
aS'HLA-A02:220'
p5634
aS'HLA-A02:221'
p5635
aS'HLA-A02:224'
p5636
aS'HLA-A02:228'
p5637
aS'HLA-A02:229'
p5638
aS'HLA-A02:230'
p5639
aS'HLA-A02:231'
p5640
aS'HLA-A02:232'
p5641
aS'HLA-A02:233'
p5642
aS'HLA-A02:234'
p5643
aS'HLA-A02:235'
p5644
aS'HLA-A02:236'
p5645
aS'HLA-A02:237'
p5646
aS'HLA-A02:238'
p5647
aS'HLA-A02:239'
p5648
aS'HLA-A02:240'
p5649
aS'HLA-A02:241'
p5650
aS'HLA-A02:242'
p5651
aS'HLA-A02:243'
p5652
aS'HLA-A02:244'
p5653
aS'HLA-A02:245'
p5654
aS'HLA-A02:246'
p5655
aS'HLA-A02:247'
p5656
aS'HLA-A02:248'
p5657
aS'HLA-A02:249'
p5658
aS'HLA-A02:251'
p5659
aS'HLA-A02:252'
p5660
aS'HLA-A02:253'
p5661
aS'HLA-A02:254'
p5662
aS'HLA-A02:255'
p5663
aS'HLA-A02:256'
p5664
aS'HLA-A02:257'
p5665
aS'HLA-A02:258'
p5666
aS'HLA-A02:259'
p5667
aS'HLA-A02:260'
p5668
aS'HLA-A02:261'
p5669
aS'HLA-A02:262'
p5670
aS'HLA-A02:263'
p5671
aS'HLA-A02:264'
p5672
aS'HLA-A02:265'
p5673
aS'HLA-A02:266'
p5674
aS'HLA-A03:01'
p5675
aS'HLA-A03:02'
p5676
aS'HLA-A03:04'
p5677
aS'HLA-A03:05'
p5678
aS'HLA-A03:06'
p5679
aS'HLA-A03:07'
p5680
aS'HLA-A03:08'
p5681
aS'HLA-A03:09'
p5682
aS'HLA-A03:10'
p5683
aS'HLA-A03:12'
p5684
aS'HLA-A03:13'
p5685
aS'HLA-A03:14'
p5686
aS'HLA-A03:15'
p5687
aS'HLA-A03:16'
p5688
aS'HLA-A03:17'
p5689
aS'HLA-A03:18'
p5690
aS'HLA-A03:19'
p5691
aS'HLA-A03:20'
p5692
aS'HLA-A03:22'
p5693
aS'HLA-A03:23'
p5694
aS'HLA-A03:24'
p5695
aS'HLA-A03:25'
p5696
aS'HLA-A03:26'
p5697
aS'HLA-A03:27'
p5698
aS'HLA-A03:28'
p5699
aS'HLA-A03:29'
p5700
aS'HLA-A03:30'
p5701
aS'HLA-A03:31'
p5702
aS'HLA-A03:32'
p5703
aS'HLA-A03:33'
p5704
aS'HLA-A03:34'
p5705
aS'HLA-A03:35'
p5706
aS'HLA-A03:37'
p5707
aS'HLA-A03:38'
p5708
aS'HLA-A03:39'
p5709
aS'HLA-A03:40'
p5710
aS'HLA-A03:41'
p5711
aS'HLA-A03:42'
p5712
aS'HLA-A03:43'
p5713
aS'HLA-A03:44'
p5714
aS'HLA-A03:45'
p5715
aS'HLA-A03:46'
p5716
aS'HLA-A03:47'
p5717
aS'HLA-A03:48'
p5718
aS'HLA-A03:49'
p5719
aS'HLA-A03:50'
p5720
aS'HLA-A03:51'
p5721
aS'HLA-A03:52'
p5722
aS'HLA-A03:53'
p5723
aS'HLA-A03:54'
p5724
aS'HLA-A03:55'
p5725
aS'HLA-A03:56'
p5726
aS'HLA-A03:57'
p5727
aS'HLA-A03:58'
p5728
aS'HLA-A03:59'
p5729
aS'HLA-A03:60'
p5730
aS'HLA-A03:61'
p5731
aS'HLA-A03:62'
p5732
aS'HLA-A03:63'
p5733
aS'HLA-A03:64'
p5734
aS'HLA-A03:65'
p5735
aS'HLA-A03:66'
p5736
aS'HLA-A03:67'
p5737
aS'HLA-A03:70'
p5738
aS'HLA-A03:71'
p5739
aS'HLA-A03:72'
p5740
aS'HLA-A03:73'
p5741
aS'HLA-A03:74'
p5742
aS'HLA-A03:75'
p5743
aS'HLA-A03:76'
p5744
aS'HLA-A03:77'
p5745
aS'HLA-A03:78'
p5746
aS'HLA-A03:79'
p5747
aS'HLA-A03:80'
p5748
aS'HLA-A03:81'
p5749
aS'HLA-A03:82'
p5750
aS'HLA-A11:01'
p5751
aS'HLA-A11:02'
p5752
aS'HLA-A11:03'
p5753
aS'HLA-A11:04'
p5754
aS'HLA-A11:05'
p5755
aS'HLA-A11:06'
p5756
aS'HLA-A11:07'
p5757
aS'HLA-A11:08'
p5758
aS'HLA-A11:09'
p5759
aS'HLA-A11:10'
p5760
aS'HLA-A11:11'
p5761
aS'HLA-A11:12'
p5762
aS'HLA-A11:13'
p5763
aS'HLA-A11:14'
p5764
aS'HLA-A11:15'
p5765
aS'HLA-A11:16'
p5766
aS'HLA-A11:17'
p5767
aS'HLA-A11:18'
p5768
aS'HLA-A11:19'
p5769
aS'HLA-A11:20'
p5770
aS'HLA-A11:22'
p5771
aS'HLA-A11:23'
p5772
aS'HLA-A11:24'
p5773
aS'HLA-A11:25'
p5774
aS'HLA-A11:26'
p5775
aS'HLA-A11:27'
p5776
aS'HLA-A11:29'
p5777
aS'HLA-A11:30'
p5778
aS'HLA-A11:31'
p5779
aS'HLA-A11:32'
p5780
aS'HLA-A11:33'
p5781
aS'HLA-A11:34'
p5782
aS'HLA-A11:35'
p5783
aS'HLA-A11:36'
p5784
aS'HLA-A11:37'
p5785
aS'HLA-A11:38'
p5786
aS'HLA-A11:39'
p5787
aS'HLA-A11:40'
p5788
aS'HLA-A11:41'
p5789
aS'HLA-A11:42'
p5790
aS'HLA-A11:43'
p5791
aS'HLA-A11:44'
p5792
aS'HLA-A11:45'
p5793
aS'HLA-A11:46'
p5794
aS'HLA-A11:47'
p5795
aS'HLA-A11:48'
p5796
aS'HLA-A11:49'
p5797
aS'HLA-A11:51'
p5798
aS'HLA-A11:53'
p5799
aS'HLA-A11:54'
p5800
aS'HLA-A11:55'
p5801
aS'HLA-A11:56'
p5802
aS'HLA-A11:57'
p5803
aS'HLA-A11:58'
p5804
aS'HLA-A11:59'
p5805
aS'HLA-A11:60'
p5806
aS'HLA-A11:61'
p5807
aS'HLA-A11:62'
p5808
aS'HLA-A11:63'
p5809
aS'HLA-A11:64'
p5810
aS'HLA-A23:01'
p5811
aS'HLA-A23:02'
p5812
aS'HLA-A23:03'
p5813
aS'HLA-A23:04'
p5814
aS'HLA-A23:05'
p5815
aS'HLA-A23:06'
p5816
aS'HLA-A23:09'
p5817
aS'HLA-A23:10'
p5818
aS'HLA-A23:12'
p5819
aS'HLA-A23:13'
p5820
aS'HLA-A23:14'
p5821
aS'HLA-A23:15'
p5822
aS'HLA-A23:16'
p5823
aS'HLA-A23:17'
p5824
aS'HLA-A23:18'
p5825
aS'HLA-A23:20'
p5826
aS'HLA-A23:21'
p5827
aS'HLA-A23:22'
p5828
aS'HLA-A23:23'
p5829
aS'HLA-A23:24'
p5830
aS'HLA-A23:25'
p5831
aS'HLA-A23:26'
p5832
aS'HLA-A24:02'
p5833
aS'HLA-A24:03'
p5834
aS'HLA-A24:04'
p5835
aS'HLA-A24:05'
p5836
aS'HLA-A24:06'
p5837
aS'HLA-A24:07'
p5838
aS'HLA-A24:08'
p5839
aS'HLA-A24:10'
p5840
aS'HLA-A24:13'
p5841
aS'HLA-A24:14'
p5842
aS'HLA-A24:15'
p5843
aS'HLA-A24:17'
p5844
aS'HLA-A24:18'
p5845
aS'HLA-A24:19'
p5846
aS'HLA-A24:20'
p5847
aS'HLA-A24:21'
p5848
aS'HLA-A24:22'
p5849
aS'HLA-A24:23'
p5850
aS'HLA-A24:24'
p5851
aS'HLA-A24:25'
p5852
aS'HLA-A24:26'
p5853
aS'HLA-A24:27'
p5854
aS'HLA-A24:28'
p5855
aS'HLA-A24:29'
p5856
aS'HLA-A24:30'
p5857
aS'HLA-A24:31'
p5858
aS'HLA-A24:32'
p5859
aS'HLA-A24:33'
p5860
aS'HLA-A24:34'
p5861
aS'HLA-A24:35'
p5862
aS'HLA-A24:37'
p5863
aS'HLA-A24:38'
p5864
aS'HLA-A24:39'
p5865
aS'HLA-A24:41'
p5866
aS'HLA-A24:42'
p5867
aS'HLA-A24:43'
p5868
aS'HLA-A24:44'
p5869
aS'HLA-A24:46'
p5870
aS'HLA-A24:47'
p5871
aS'HLA-A24:49'
p5872
aS'HLA-A24:50'
p5873
aS'HLA-A24:51'
p5874
aS'HLA-A24:52'
p5875
aS'HLA-A24:53'
p5876
aS'HLA-A24:54'
p5877
aS'HLA-A24:55'
p5878
aS'HLA-A24:56'
p5879
aS'HLA-A24:57'
p5880
aS'HLA-A24:58'
p5881
aS'HLA-A24:59'
p5882
aS'HLA-A24:61'
p5883
aS'HLA-A24:62'
p5884
aS'HLA-A24:63'
p5885
aS'HLA-A24:64'
p5886
aS'HLA-A24:66'
p5887
aS'HLA-A24:67'
p5888
aS'HLA-A24:68'
p5889
aS'HLA-A24:69'
p5890
aS'HLA-A24:70'
p5891
aS'HLA-A24:71'
p5892
aS'HLA-A24:72'
p5893
aS'HLA-A24:73'
p5894
aS'HLA-A24:74'
p5895
aS'HLA-A24:75'
p5896
aS'HLA-A24:76'
p5897
aS'HLA-A24:77'
p5898
aS'HLA-A24:78'
p5899
aS'HLA-A24:79'
p5900
aS'HLA-A24:80'
p5901
aS'HLA-A24:81'
p5902
aS'HLA-A24:82'
p5903
aS'HLA-A24:85'
p5904
aS'HLA-A24:87'
p5905
aS'HLA-A24:88'
p5906
aS'HLA-A24:89'
p5907
aS'HLA-A24:91'
p5908
aS'HLA-A24:92'
p5909
aS'HLA-A24:93'
p5910
aS'HLA-A24:94'
p5911
aS'HLA-A24:95'
p5912
aS'HLA-A24:96'
p5913
aS'HLA-A24:97'
p5914
aS'HLA-A24:98'
p5915
aS'HLA-A24:99'
p5916
aS'HLA-A24:100'
p5917
aS'HLA-A24:101'
p5918
aS'HLA-A24:102'
p5919
aS'HLA-A24:103'
p5920
aS'HLA-A24:104'
p5921
aS'HLA-A24:105'
p5922
aS'HLA-A24:106'
p5923
aS'HLA-A24:107'
p5924
aS'HLA-A24:108'
p5925
aS'HLA-A24:109'
p5926
aS'HLA-A24:110'
p5927
aS'HLA-A24:111'
p5928
aS'HLA-A24:112'
p5929
aS'HLA-A24:113'
p5930
aS'HLA-A24:114'
p5931
aS'HLA-A24:115'
p5932
aS'HLA-A24:116'
p5933
aS'HLA-A24:117'
p5934
aS'HLA-A24:118'
p5935
aS'HLA-A24:119'
p5936
aS'HLA-A24:120'
p5937
aS'HLA-A24:121'
p5938
aS'HLA-A24:122'
p5939
aS'HLA-A24:123'
p5940
aS'HLA-A24:124'
p5941
aS'HLA-A24:125'
p5942
aS'HLA-A24:126'
p5943
aS'HLA-A24:127'
p5944
aS'HLA-A24:128'
p5945
aS'HLA-A24:129'
p5946
aS'HLA-A24:130'
p5947
aS'HLA-A24:131'
p5948
aS'HLA-A24:133'
p5949
aS'HLA-A24:134'
p5950
aS'HLA-A24:135'
p5951
aS'HLA-A24:136'
p5952
aS'HLA-A24:137'
p5953
aS'HLA-A24:138'
p5954
aS'HLA-A24:139'
p5955
aS'HLA-A24:140'
p5956
aS'HLA-A24:141'
p5957
aS'HLA-A24:142'
p5958
aS'HLA-A24:143'
p5959
aS'HLA-A24:144'
p5960
aS'HLA-A25:01'
p5961
aS'HLA-A25:02'
p5962
aS'HLA-A25:03'
p5963
aS'HLA-A25:04'
p5964
aS'HLA-A25:05'
p5965
aS'HLA-A25:06'
p5966
aS'HLA-A25:07'
p5967
aS'HLA-A25:08'
p5968
aS'HLA-A25:09'
p5969
aS'HLA-A25:10'
p5970
aS'HLA-A25:11'
p5971
aS'HLA-A25:13'
p5972
aS'HLA-A26:01'
p5973
aS'HLA-A26:02'
p5974
aS'HLA-A26:03'
p5975
aS'HLA-A26:04'
p5976
aS'HLA-A26:05'
p5977
aS'HLA-A26:06'
p5978
aS'HLA-A26:07'
p5979
aS'HLA-A26:08'
p5980
aS'HLA-A26:09'
p5981
aS'HLA-A26:10'
p5982
aS'HLA-A26:12'
p5983
aS'HLA-A26:13'
p5984
aS'HLA-A26:14'
p5985
aS'HLA-A26:15'
p5986
aS'HLA-A26:16'
p5987
aS'HLA-A26:17'
p5988
aS'HLA-A26:18'
p5989
aS'HLA-A26:19'
p5990
aS'HLA-A26:20'
p5991
aS'HLA-A26:21'
p5992
aS'HLA-A26:22'
p5993
aS'HLA-A26:23'
p5994
aS'HLA-A26:24'
p5995
aS'HLA-A26:26'
p5996
aS'HLA-A26:27'
p5997
aS'HLA-A26:28'
p5998
aS'HLA-A26:29'
p5999
aS'HLA-A26:30'
p6000
aS'HLA-A26:31'
p6001
aS'HLA-A26:32'
p6002
aS'HLA-A26:33'
p6003
aS'HLA-A26:34'
p6004
aS'HLA-A26:35'
p6005
aS'HLA-A26:36'
p6006
aS'HLA-A26:37'
p6007
aS'HLA-A26:38'
p6008
aS'HLA-A26:39'
p6009
aS'HLA-A26:40'
p6010
aS'HLA-A26:41'
p6011
aS'HLA-A26:42'
p6012
aS'HLA-A26:43'
p6013
aS'HLA-A26:45'
p6014
aS'HLA-A26:46'
p6015
aS'HLA-A26:47'
p6016
aS'HLA-A26:48'
p6017
aS'HLA-A26:49'
p6018
aS'HLA-A26:50'
p6019
aS'HLA-A29:01'
p6020
aS'HLA-A29:02'
p6021
aS'HLA-A29:03'
p6022
aS'HLA-A29:04'
p6023
aS'HLA-A29:05'
p6024
aS'HLA-A29:06'
p6025
aS'HLA-A29:07'
p6026
aS'HLA-A29:09'
p6027
aS'HLA-A29:10'
p6028
aS'HLA-A29:11'
p6029
aS'HLA-A29:12'
p6030
aS'HLA-A29:13'
p6031
aS'HLA-A29:14'
p6032
aS'HLA-A29:15'
p6033
aS'HLA-A29:16'
p6034
aS'HLA-A29:17'
p6035
aS'HLA-A29:18'
p6036
aS'HLA-A29:19'
p6037
aS'HLA-A29:20'
p6038
aS'HLA-A29:21'
p6039
aS'HLA-A29:22'
p6040
aS'HLA-A30:01'
p6041
aS'HLA-A30:02'
p6042
aS'HLA-A30:03'
p6043
aS'HLA-A30:04'
p6044
aS'HLA-A30:06'
p6045
aS'HLA-A30:07'
p6046
aS'HLA-A30:08'
p6047
aS'HLA-A30:09'
p6048
aS'HLA-A30:10'
p6049
aS'HLA-A30:11'
p6050
aS'HLA-A30:12'
p6051
aS'HLA-A30:13'
p6052
aS'HLA-A30:15'
p6053
aS'HLA-A30:16'
p6054
aS'HLA-A30:17'
p6055
aS'HLA-A30:18'
p6056
aS'HLA-A30:19'
p6057
aS'HLA-A30:20'
p6058
aS'HLA-A30:22'
p6059
aS'HLA-A30:23'
p6060
aS'HLA-A30:24'
p6061
aS'HLA-A30:25'
p6062
aS'HLA-A30:26'
p6063
aS'HLA-A30:28'
p6064
aS'HLA-A30:29'
p6065
aS'HLA-A30:30'
p6066
aS'HLA-A30:31'
p6067
aS'HLA-A30:32'
p6068
aS'HLA-A30:33'
p6069
aS'HLA-A30:34'
p6070
aS'HLA-A30:35'
p6071
aS'HLA-A30:36'
p6072
aS'HLA-A30:37'
p6073
aS'HLA-A30:38'
p6074
aS'HLA-A30:39'
p6075
aS'HLA-A30:40'
p6076
aS'HLA-A30:41'
p6077
aS'HLA-A31:01'
p6078
aS'HLA-A31:02'
p6079
aS'HLA-A31:03'
p6080
aS'HLA-A31:04'
p6081
aS'HLA-A31:05'
p6082
aS'HLA-A31:06'
p6083
aS'HLA-A31:07'
p6084
aS'HLA-A31:08'
p6085
aS'HLA-A31:09'
p6086
aS'HLA-A31:10'
p6087
aS'HLA-A31:11'
p6088
aS'HLA-A31:12'
p6089
aS'HLA-A31:13'
p6090
aS'HLA-A31:15'
p6091
aS'HLA-A31:16'
p6092
aS'HLA-A31:17'
p6093
aS'HLA-A31:18'
p6094
aS'HLA-A31:19'
p6095
aS'HLA-A31:20'
p6096
aS'HLA-A31:21'
p6097
aS'HLA-A31:22'
p6098
aS'HLA-A31:23'
p6099
aS'HLA-A31:24'
p6100
aS'HLA-A31:25'
p6101
aS'HLA-A31:26'
p6102
aS'HLA-A31:27'
p6103
aS'HLA-A31:28'
p6104
aS'HLA-A31:29'
p6105
aS'HLA-A31:30'
p6106
aS'HLA-A31:31'
p6107
aS'HLA-A31:32'
p6108
aS'HLA-A31:33'
p6109
aS'HLA-A31:34'
p6110
aS'HLA-A31:35'
p6111
aS'HLA-A31:36'
p6112
aS'HLA-A31:37'
p6113
aS'HLA-A32:01'
p6114
aS'HLA-A32:02'
p6115
aS'HLA-A32:03'
p6116
aS'HLA-A32:04'
p6117
aS'HLA-A32:05'
p6118
aS'HLA-A32:06'
p6119
aS'HLA-A32:07'
p6120
aS'HLA-A32:08'
p6121
aS'HLA-A32:09'
p6122
aS'HLA-A32:10'
p6123
aS'HLA-A32:12'
p6124
aS'HLA-A32:13'
p6125
aS'HLA-A32:14'
p6126
aS'HLA-A32:15'
p6127
aS'HLA-A32:16'
p6128
aS'HLA-A32:17'
p6129
aS'HLA-A32:18'
p6130
aS'HLA-A32:20'
p6131
aS'HLA-A32:21'
p6132
aS'HLA-A32:22'
p6133
aS'HLA-A32:23'
p6134
aS'HLA-A32:24'
p6135
aS'HLA-A32:25'
p6136
aS'HLA-A33:01'
p6137
aS'HLA-A33:03'
p6138
aS'HLA-A33:04'
p6139
aS'HLA-A33:05'
p6140
aS'HLA-A33:06'
p6141
aS'HLA-A33:07'
p6142
aS'HLA-A33:08'
p6143
aS'HLA-A33:09'
p6144
aS'HLA-A33:10'
p6145
aS'HLA-A33:11'
p6146
aS'HLA-A33:12'
p6147
aS'HLA-A33:13'
p6148
aS'HLA-A33:14'
p6149
aS'HLA-A33:15'
p6150
aS'HLA-A33:16'
p6151
aS'HLA-A33:17'
p6152
aS'HLA-A33:18'
p6153
aS'HLA-A33:19'
p6154
aS'HLA-A33:20'
p6155
aS'HLA-A33:21'
p6156
aS'HLA-A33:22'
p6157
aS'HLA-A33:23'
p6158
aS'HLA-A33:24'
p6159
aS'HLA-A33:25'
p6160
aS'HLA-A33:26'
p6161
aS'HLA-A33:27'
p6162
aS'HLA-A33:28'
p6163
aS'HLA-A33:29'
p6164
aS'HLA-A33:30'
p6165
aS'HLA-A33:31'
p6166
aS'HLA-A34:01'
p6167
aS'HLA-A34:02'
p6168
aS'HLA-A34:03'
p6169
aS'HLA-A34:04'
p6170
aS'HLA-A34:05'
p6171
aS'HLA-A34:06'
p6172
aS'HLA-A34:07'
p6173
aS'HLA-A34:08'
p6174
aS'HLA-A36:01'
p6175
aS'HLA-A36:02'
p6176
aS'HLA-A36:03'
p6177
aS'HLA-A36:04'
p6178
aS'HLA-A36:05'
p6179
aS'HLA-A43:01'
p6180
aS'HLA-A66:01'
p6181
aS'HLA-A66:02'
p6182
aS'HLA-A66:03'
p6183
aS'HLA-A66:04'
p6184
aS'HLA-A66:05'
p6185
aS'HLA-A66:06'
p6186
aS'HLA-A66:07'
p6187
aS'HLA-A66:08'
p6188
aS'HLA-A66:09'
p6189
aS'HLA-A66:10'
p6190
aS'HLA-A66:11'
p6191
aS'HLA-A66:12'
p6192
aS'HLA-A66:13'
p6193
aS'HLA-A66:14'
p6194
aS'HLA-A66:15'
p6195
aS'HLA-A68:01'
p6196
aS'HLA-A68:02'
p6197
aS'HLA-A68:03'
p6198
aS'HLA-A68:04'
p6199
aS'HLA-A68:05'
p6200
aS'HLA-A68:06'
p6201
aS'HLA-A68:07'
p6202
aS'HLA-A68:08'
p6203
aS'HLA-A68:09'
p6204
aS'HLA-A68:10'
p6205
aS'HLA-A68:12'
p6206
aS'HLA-A68:13'
p6207
aS'HLA-A68:14'
p6208
aS'HLA-A68:15'
p6209
aS'HLA-A68:16'
p6210
aS'HLA-A68:17'
p6211
aS'HLA-A68:19'
p6212
aS'HLA-A68:20'
p6213
aS'HLA-A68:21'
p6214
aS'HLA-A68:22'
p6215
aS'HLA-A68:23'
p6216
aS'HLA-A68:24'
p6217
aS'HLA-A68:25'
p6218
aS'HLA-A68:26'
p6219
aS'HLA-A68:27'
p6220
aS'HLA-A68:28'
p6221
aS'HLA-A68:29'
p6222
aS'HLA-A68:30'
p6223
aS'HLA-A68:31'
p6224
aS'HLA-A68:32'
p6225
aS'HLA-A68:33'
p6226
aS'HLA-A68:34'
p6227
aS'HLA-A68:35'
p6228
aS'HLA-A68:36'
p6229
aS'HLA-A68:37'
p6230
aS'HLA-A68:38'
p6231
aS'HLA-A68:39'
p6232
aS'HLA-A68:40'
p6233
aS'HLA-A68:41'
p6234
aS'HLA-A68:42'
p6235
aS'HLA-A68:43'
p6236
aS'HLA-A68:44'
p6237
aS'HLA-A68:45'
p6238
aS'HLA-A68:46'
p6239
aS'HLA-A68:47'
p6240
aS'HLA-A68:48'
p6241
aS'HLA-A68:50'
p6242
aS'HLA-A68:51'
p6243
aS'HLA-A68:52'
p6244
aS'HLA-A68:53'
p6245
aS'HLA-A68:54'
p6246
aS'HLA-A69:01'
p6247
aS'HLA-A74:01'
p6248
aS'HLA-A74:02'
p6249
aS'HLA-A74:03'
p6250
aS'HLA-A74:04'
p6251
aS'HLA-A74:05'
p6252
aS'HLA-A74:06'
p6253
aS'HLA-A74:07'
p6254
aS'HLA-A74:08'
p6255
aS'HLA-A74:09'
p6256
aS'HLA-A74:10'
p6257
aS'HLA-A74:11'
p6258
aS'HLA-A74:13'
p6259
aS'HLA-A80:01'
p6260
aS'HLA-A80:02'
p6261
aS'HLA-B07:02'
p6262
aS'HLA-B07:03'
p6263
aS'HLA-B07:04'
p6264
aS'HLA-B07:05'
p6265
aS'HLA-B07:06'
p6266
aS'HLA-B07:07'
p6267
aS'HLA-B07:08'
p6268
aS'HLA-B07:09'
p6269
aS'HLA-B07:10'
p6270
aS'HLA-B07:11'
p6271
aS'HLA-B07:12'
p6272
aS'HLA-B07:13'
p6273
aS'HLA-B07:14'
p6274
aS'HLA-B07:15'
p6275
aS'HLA-B07:16'
p6276
aS'HLA-B07:17'
p6277
aS'HLA-B07:18'
p6278
aS'HLA-B07:19'
p6279
aS'HLA-B07:20'
p6280
aS'HLA-B07:21'
p6281
aS'HLA-B07:22'
p6282
aS'HLA-B07:23'
p6283
aS'HLA-B07:24'
p6284
aS'HLA-B07:25'
p6285
aS'HLA-B07:26'
p6286
aS'HLA-B07:27'
p6287
aS'HLA-B07:28'
p6288
aS'HLA-B07:29'
p6289
aS'HLA-B07:30'
p6290
aS'HLA-B07:31'
p6291
aS'HLA-B07:32'
p6292
aS'HLA-B07:33'
p6293
aS'HLA-B07:34'
p6294
aS'HLA-B07:35'
p6295
aS'HLA-B07:36'
p6296
aS'HLA-B07:37'
p6297
aS'HLA-B07:38'
p6298
aS'HLA-B07:39'
p6299
aS'HLA-B07:40'
p6300
aS'HLA-B07:41'
p6301
aS'HLA-B07:42'
p6302
aS'HLA-B07:43'
p6303
aS'HLA-B07:44'
p6304
aS'HLA-B07:45'
p6305
aS'HLA-B07:46'
p6306
aS'HLA-B07:47'
p6307
aS'HLA-B07:48'
p6308
aS'HLA-B07:50'
p6309
aS'HLA-B07:51'
p6310
aS'HLA-B07:52'
p6311
aS'HLA-B07:53'
p6312
aS'HLA-B07:54'
p6313
aS'HLA-B07:55'
p6314
aS'HLA-B07:56'
p6315
aS'HLA-B07:57'
p6316
aS'HLA-B07:58'
p6317
aS'HLA-B07:59'
p6318
aS'HLA-B07:60'
p6319
aS'HLA-B07:61'
p6320
aS'HLA-B07:62'
p6321
aS'HLA-B07:63'
p6322
aS'HLA-B07:64'
p6323
aS'HLA-B07:65'
p6324
aS'HLA-B07:66'
p6325
aS'HLA-B07:68'
p6326
aS'HLA-B07:69'
p6327
aS'HLA-B07:70'
p6328
aS'HLA-B07:71'
p6329
aS'HLA-B07:72'
p6330
aS'HLA-B07:73'
p6331
aS'HLA-B07:74'
p6332
aS'HLA-B07:75'
p6333
aS'HLA-B07:76'
p6334
aS'HLA-B07:77'
p6335
aS'HLA-B07:78'
p6336
aS'HLA-B07:79'
p6337
aS'HLA-B07:80'
p6338
aS'HLA-B07:81'
p6339
aS'HLA-B07:82'
p6340
aS'HLA-B07:83'
p6341
aS'HLA-B07:84'
p6342
aS'HLA-B07:85'
p6343
aS'HLA-B07:86'
p6344
aS'HLA-B07:87'
p6345
aS'HLA-B07:88'
p6346
aS'HLA-B07:89'
p6347
aS'HLA-B07:90'
p6348
aS'HLA-B07:91'
p6349
aS'HLA-B07:92'
p6350
aS'HLA-B07:93'
p6351
aS'HLA-B07:94'
p6352
aS'HLA-B07:95'
p6353
aS'HLA-B07:96'
p6354
aS'HLA-B07:97'
p6355
aS'HLA-B07:98'
p6356
aS'HLA-B07:99'
p6357
aS'HLA-B07:100'
p6358
aS'HLA-B07:101'
p6359
aS'HLA-B07:102'
p6360
aS'HLA-B07:103'
p6361
aS'HLA-B07:104'
p6362
aS'HLA-B07:105'
p6363
aS'HLA-B07:106'
p6364
aS'HLA-B07:107'
p6365
aS'HLA-B07:108'
p6366
aS'HLA-B07:109'
p6367
aS'HLA-B07:110'
p6368
aS'HLA-B07:112'
p6369
aS'HLA-B07:113'
p6370
aS'HLA-B07:114'
p6371
aS'HLA-B07:115'
p6372
aS'HLA-B08:01'
p6373
aS'HLA-B08:02'
p6374
aS'HLA-B08:03'
p6375
aS'HLA-B08:04'
p6376
aS'HLA-B08:05'
p6377
aS'HLA-B08:07'
p6378
aS'HLA-B08:09'
p6379
aS'HLA-B08:10'
p6380
aS'HLA-B08:11'
p6381
aS'HLA-B08:12'
p6382
aS'HLA-B08:13'
p6383
aS'HLA-B08:14'
p6384
aS'HLA-B08:15'
p6385
aS'HLA-B08:16'
p6386
aS'HLA-B08:17'
p6387
aS'HLA-B08:18'
p6388
aS'HLA-B08:20'
p6389
aS'HLA-B08:21'
p6390
aS'HLA-B08:22'
p6391
aS'HLA-B08:23'
p6392
aS'HLA-B08:24'
p6393
aS'HLA-B08:25'
p6394
aS'HLA-B08:26'
p6395
aS'HLA-B08:27'
p6396
aS'HLA-B08:28'
p6397
aS'HLA-B08:29'
p6398
aS'HLA-B08:31'
p6399
aS'HLA-B08:32'
p6400
aS'HLA-B08:33'
p6401
aS'HLA-B08:34'
p6402
aS'HLA-B08:35'
p6403
aS'HLA-B08:36'
p6404
aS'HLA-B08:37'
p6405
aS'HLA-B08:38'
p6406
aS'HLA-B08:39'
p6407
aS'HLA-B08:40'
p6408
aS'HLA-B08:41'
p6409
aS'HLA-B08:42'
p6410
aS'HLA-B08:43'
p6411
aS'HLA-B08:44'
p6412
aS'HLA-B08:45'
p6413
aS'HLA-B08:46'
p6414
aS'HLA-B08:47'
p6415
aS'HLA-B08:48'
p6416
aS'HLA-B08:49'
p6417
aS'HLA-B08:50'
p6418
aS'HLA-B08:51'
p6419
aS'HLA-B08:52'
p6420
aS'HLA-B08:53'
p6421
aS'HLA-B08:54'
p6422
aS'HLA-B08:55'
p6423
aS'HLA-B08:56'
p6424
aS'HLA-B08:57'
p6425
aS'HLA-B08:58'
p6426
aS'HLA-B08:59'
p6427
aS'HLA-B08:60'
p6428
aS'HLA-B08:61'
p6429
aS'HLA-B08:62'
p6430
aS'HLA-B13:01'
p6431
aS'HLA-B13:02'
p6432
aS'HLA-B13:03'
p6433
aS'HLA-B13:04'
p6434
aS'HLA-B13:06'
p6435
aS'HLA-B13:09'
p6436
aS'HLA-B13:10'
p6437
aS'HLA-B13:11'
p6438
aS'HLA-B13:12'
p6439
aS'HLA-B13:13'
p6440
aS'HLA-B13:14'
p6441
aS'HLA-B13:15'
p6442
aS'HLA-B13:16'
p6443
aS'HLA-B13:17'
p6444
aS'HLA-B13:18'
p6445
aS'HLA-B13:19'
p6446
aS'HLA-B13:20'
p6447
aS'HLA-B13:21'
p6448
aS'HLA-B13:22'
p6449
aS'HLA-B13:23'
p6450
aS'HLA-B13:25'
p6451
aS'HLA-B13:26'
p6452
aS'HLA-B13:27'
p6453
aS'HLA-B13:28'
p6454
aS'HLA-B13:29'
p6455
aS'HLA-B13:30'
p6456
aS'HLA-B13:31'
p6457
aS'HLA-B13:32'
p6458
aS'HLA-B13:33'
p6459
aS'HLA-B13:34'
p6460
aS'HLA-B13:35'
p6461
aS'HLA-B13:36'
p6462
aS'HLA-B13:37'
p6463
aS'HLA-B13:38'
p6464
aS'HLA-B13:39'
p6465
aS'HLA-B14:01'
p6466
aS'HLA-B14:02'
p6467
aS'HLA-B14:03'
p6468
aS'HLA-B14:04'
p6469
aS'HLA-B14:05'
p6470
aS'HLA-B14:06'
p6471
aS'HLA-B14:08'
p6472
aS'HLA-B14:09'
p6473
aS'HLA-B14:10'
p6474
aS'HLA-B14:11'
p6475
aS'HLA-B14:12'
p6476
aS'HLA-B14:13'
p6477
aS'HLA-B14:14'
p6478
aS'HLA-B14:15'
p6479
aS'HLA-B14:16'
p6480
aS'HLA-B14:17'
p6481
aS'HLA-B14:18'
p6482
aS'HLA-B15:01'
p6483
aS'HLA-B15:02'
p6484
aS'HLA-B15:03'
p6485
aS'HLA-B15:04'
p6486
aS'HLA-B15:05'
p6487
aS'HLA-B15:06'
p6488
aS'HLA-B15:07'
p6489
aS'HLA-B15:08'
p6490
aS'HLA-B15:09'
p6491
aS'HLA-B15:10'
p6492
aS'HLA-B15:11'
p6493
aS'HLA-B15:12'
p6494
aS'HLA-B15:13'
p6495
aS'HLA-B15:14'
p6496
aS'HLA-B15:15'
p6497
aS'HLA-B15:16'
p6498
aS'HLA-B15:17'
p6499
aS'HLA-B15:18'
p6500
aS'HLA-B15:19'
p6501
aS'HLA-B15:20'
p6502
aS'HLA-B15:21'
p6503
aS'HLA-B15:23'
p6504
aS'HLA-B15:24'
p6505
aS'HLA-B15:25'
p6506
aS'HLA-B15:27'
p6507
aS'HLA-B15:28'
p6508
aS'HLA-B15:29'
p6509
aS'HLA-B15:30'
p6510
aS'HLA-B15:31'
p6511
aS'HLA-B15:32'
p6512
aS'HLA-B15:33'
p6513
aS'HLA-B15:34'
p6514
aS'HLA-B15:35'
p6515
aS'HLA-B15:36'
p6516
aS'HLA-B15:37'
p6517
aS'HLA-B15:38'
p6518
aS'HLA-B15:39'
p6519
aS'HLA-B15:40'
p6520
aS'HLA-B15:42'
p6521
aS'HLA-B15:43'
p6522
aS'HLA-B15:44'
p6523
aS'HLA-B15:45'
p6524
aS'HLA-B15:46'
p6525
aS'HLA-B15:47'
p6526
aS'HLA-B15:48'
p6527
aS'HLA-B15:49'
p6528
aS'HLA-B15:50'
p6529
aS'HLA-B15:51'
p6530
aS'HLA-B15:52'
p6531
aS'HLA-B15:53'
p6532
aS'HLA-B15:54'
p6533
aS'HLA-B15:55'
p6534
aS'HLA-B15:56'
p6535
aS'HLA-B15:57'
p6536
aS'HLA-B15:58'
p6537
aS'HLA-B15:60'
p6538
aS'HLA-B15:61'
p6539
aS'HLA-B15:62'
p6540
aS'HLA-B15:63'
p6541
aS'HLA-B15:64'
p6542
aS'HLA-B15:65'
p6543
aS'HLA-B15:66'
p6544
aS'HLA-B15:67'
p6545
aS'HLA-B15:68'
p6546
aS'HLA-B15:69'
p6547
aS'HLA-B15:70'
p6548
aS'HLA-B15:71'
p6549
aS'HLA-B15:72'
p6550
aS'HLA-B15:73'
p6551
aS'HLA-B15:74'
p6552
aS'HLA-B15:75'
p6553
aS'HLA-B15:76'
p6554
aS'HLA-B15:77'
p6555
aS'HLA-B15:78'
p6556
aS'HLA-B15:80'
p6557
aS'HLA-B15:81'
p6558
aS'HLA-B15:82'
p6559
aS'HLA-B15:83'
p6560
aS'HLA-B15:84'
p6561
aS'HLA-B15:85'
p6562
aS'HLA-B15:86'
p6563
aS'HLA-B15:87'
p6564
aS'HLA-B15:88'
p6565
aS'HLA-B15:89'
p6566
aS'HLA-B15:90'
p6567
aS'HLA-B15:91'
p6568
aS'HLA-B15:92'
p6569
aS'HLA-B15:93'
p6570
aS'HLA-B15:95'
p6571
aS'HLA-B15:96'
p6572
aS'HLA-B15:97'
p6573
aS'HLA-B15:98'
p6574
aS'HLA-B15:99'
p6575
aS'HLA-B15:101'
p6576
aS'HLA-B15:102'
p6577
aS'HLA-B15:103'
p6578
aS'HLA-B15:104'
p6579
aS'HLA-B15:105'
p6580
aS'HLA-B15:106'
p6581
aS'HLA-B15:107'
p6582
aS'HLA-B15:108'
p6583
aS'HLA-B15:109'
p6584
aS'HLA-B15:110'
p6585
aS'HLA-B15:112'
p6586
aS'HLA-B15:113'
p6587
aS'HLA-B15:114'
p6588
aS'HLA-B15:115'
p6589
aS'HLA-B15:116'
p6590
aS'HLA-B15:117'
p6591
aS'HLA-B15:118'
p6592
aS'HLA-B15:119'
p6593
aS'HLA-B15:120'
p6594
aS'HLA-B15:121'
p6595
aS'HLA-B15:122'
p6596
aS'HLA-B15:123'
p6597
aS'HLA-B15:124'
p6598
aS'HLA-B15:125'
p6599
aS'HLA-B15:126'
p6600
aS'HLA-B15:127'
p6601
aS'HLA-B15:128'
p6602
aS'HLA-B15:129'
p6603
aS'HLA-B15:131'
p6604
aS'HLA-B15:132'
p6605
aS'HLA-B15:133'
p6606
aS'HLA-B15:134'
p6607
aS'HLA-B15:135'
p6608
aS'HLA-B15:136'
p6609
aS'HLA-B15:137'
p6610
aS'HLA-B15:138'
p6611
aS'HLA-B15:139'
p6612
aS'HLA-B15:140'
p6613
aS'HLA-B15:141'
p6614
aS'HLA-B15:142'
p6615
aS'HLA-B15:143'
p6616
aS'HLA-B15:144'
p6617
aS'HLA-B15:145'
p6618
aS'HLA-B15:146'
p6619
aS'HLA-B15:147'
p6620
aS'HLA-B15:148'
p6621
aS'HLA-B15:150'
p6622
aS'HLA-B15:151'
p6623
aS'HLA-B15:152'
p6624
aS'HLA-B15:153'
p6625
aS'HLA-B15:154'
p6626
aS'HLA-B15:155'
p6627
aS'HLA-B15:156'
p6628
aS'HLA-B15:157'
p6629
aS'HLA-B15:158'
p6630
aS'HLA-B15:159'
p6631
aS'HLA-B15:160'
p6632
aS'HLA-B15:161'
p6633
aS'HLA-B15:162'
p6634
aS'HLA-B15:163'
p6635
aS'HLA-B15:164'
p6636
aS'HLA-B15:165'
p6637
aS'HLA-B15:166'
p6638
aS'HLA-B15:167'
p6639
aS'HLA-B15:168'
p6640
aS'HLA-B15:169'
p6641
aS'HLA-B15:170'
p6642
aS'HLA-B15:171'
p6643
aS'HLA-B15:172'
p6644
aS'HLA-B15:173'
p6645
aS'HLA-B15:174'
p6646
aS'HLA-B15:175'
p6647
aS'HLA-B15:176'
p6648
aS'HLA-B15:177'
p6649
aS'HLA-B15:178'
p6650
aS'HLA-B15:179'
p6651
aS'HLA-B15:180'
p6652
aS'HLA-B15:183'
p6653
aS'HLA-B15:184'
p6654
aS'HLA-B15:185'
p6655
aS'HLA-B15:186'
p6656
aS'HLA-B15:187'
p6657
aS'HLA-B15:188'
p6658
aS'HLA-B15:189'
p6659
aS'HLA-B15:191'
p6660
aS'HLA-B15:192'
p6661
aS'HLA-B15:193'
p6662
aS'HLA-B15:194'
p6663
aS'HLA-B15:195'
p6664
aS'HLA-B15:196'
p6665
aS'HLA-B15:197'
p6666
aS'HLA-B15:198'
p6667
aS'HLA-B15:199'
p6668
aS'HLA-B15:200'
p6669
aS'HLA-B15:201'
p6670
aS'HLA-B15:202'
p6671
aS'HLA-B18:01'
p6672
aS'HLA-B18:02'
p6673
aS'HLA-B18:03'
p6674
aS'HLA-B18:04'
p6675
aS'HLA-B18:05'
p6676
aS'HLA-B18:06'
p6677
aS'HLA-B18:07'
p6678
aS'HLA-B18:08'
p6679
aS'HLA-B18:09'
p6680
aS'HLA-B18:10'
p6681
aS'HLA-B18:11'
p6682
aS'HLA-B18:12'
p6683
aS'HLA-B18:13'
p6684
aS'HLA-B18:14'
p6685
aS'HLA-B18:15'
p6686
aS'HLA-B18:18'
p6687
aS'HLA-B18:19'
p6688
aS'HLA-B18:20'
p6689
aS'HLA-B18:21'
p6690
aS'HLA-B18:22'
p6691
aS'HLA-B18:24'
p6692
aS'HLA-B18:25'
p6693
aS'HLA-B18:26'
p6694
aS'HLA-B18:27'
p6695
aS'HLA-B18:28'
p6696
aS'HLA-B18:29'
p6697
aS'HLA-B18:30'
p6698
aS'HLA-B18:31'
p6699
aS'HLA-B18:32'
p6700
aS'HLA-B18:33'
p6701
aS'HLA-B18:34'
p6702
aS'HLA-B18:35'
p6703
aS'HLA-B18:36'
p6704
aS'HLA-B18:37'
p6705
aS'HLA-B18:38'
p6706
aS'HLA-B18:39'
p6707
aS'HLA-B18:40'
p6708
aS'HLA-B18:41'
p6709
aS'HLA-B18:42'
p6710
aS'HLA-B18:43'
p6711
aS'HLA-B18:44'
p6712
aS'HLA-B18:45'
p6713
aS'HLA-B18:46'
p6714
aS'HLA-B18:47'
p6715
aS'HLA-B18:48'
p6716
aS'HLA-B18:49'
p6717
aS'HLA-B18:50'
p6718
aS'HLA-B27:01'
p6719
aS'HLA-B27:02'
p6720
aS'HLA-B27:03'
p6721
aS'HLA-B27:04'
p6722
aS'HLA-B27:05'
p6723
aS'HLA-B27:06'
p6724
aS'HLA-B27:07'
p6725
aS'HLA-B27:08'
p6726
aS'HLA-B27:09'
p6727
aS'HLA-B27:10'
p6728
aS'HLA-B27:11'
p6729
aS'HLA-B27:12'
p6730
aS'HLA-B27:13'
p6731
aS'HLA-B27:14'
p6732
aS'HLA-B27:15'
p6733
aS'HLA-B27:16'
p6734
aS'HLA-B27:17'
p6735
aS'HLA-B27:18'
p6736
aS'HLA-B27:19'
p6737
aS'HLA-B27:20'
p6738
aS'HLA-B27:21'
p6739
aS'HLA-B27:23'
p6740
aS'HLA-B27:24'
p6741
aS'HLA-B27:25'
p6742
aS'HLA-B27:26'
p6743
aS'HLA-B27:27'
p6744
aS'HLA-B27:28'
p6745
aS'HLA-B27:29'
p6746
aS'HLA-B27:30'
p6747
aS'HLA-B27:31'
p6748
aS'HLA-B27:32'
p6749
aS'HLA-B27:33'
p6750
aS'HLA-B27:34'
p6751
aS'HLA-B27:35'
p6752
aS'HLA-B27:36'
p6753
aS'HLA-B27:37'
p6754
aS'HLA-B27:38'
p6755
aS'HLA-B27:39'
p6756
aS'HLA-B27:40'
p6757
aS'HLA-B27:41'
p6758
aS'HLA-B27:42'
p6759
aS'HLA-B27:43'
p6760
aS'HLA-B27:44'
p6761
aS'HLA-B27:45'
p6762
aS'HLA-B27:46'
p6763
aS'HLA-B27:47'
p6764
aS'HLA-B27:48'
p6765
aS'HLA-B27:49'
p6766
aS'HLA-B27:50'
p6767
aS'HLA-B27:51'
p6768
aS'HLA-B27:52'
p6769
aS'HLA-B27:53'
p6770
aS'HLA-B27:54'
p6771
aS'HLA-B27:55'
p6772
aS'HLA-B27:56'
p6773
aS'HLA-B27:57'
p6774
aS'HLA-B27:58'
p6775
aS'HLA-B27:60'
p6776
aS'HLA-B27:61'
p6777
aS'HLA-B27:62'
p6778
aS'HLA-B27:63'
p6779
aS'HLA-B27:67'
p6780
aS'HLA-B27:68'
p6781
aS'HLA-B27:69'
p6782
aS'HLA-B35:01'
p6783
aS'HLA-B35:02'
p6784
aS'HLA-B35:03'
p6785
aS'HLA-B35:04'
p6786
aS'HLA-B35:05'
p6787
aS'HLA-B35:06'
p6788
aS'HLA-B35:07'
p6789
aS'HLA-B35:08'
p6790
aS'HLA-B35:09'
p6791
aS'HLA-B35:10'
p6792
aS'HLA-B35:11'
p6793
aS'HLA-B35:12'
p6794
aS'HLA-B35:13'
p6795
aS'HLA-B35:14'
p6796
aS'HLA-B35:15'
p6797
aS'HLA-B35:16'
p6798
aS'HLA-B35:17'
p6799
aS'HLA-B35:18'
p6800
aS'HLA-B35:19'
p6801
aS'HLA-B35:20'
p6802
aS'HLA-B35:21'
p6803
aS'HLA-B35:22'
p6804
aS'HLA-B35:23'
p6805
aS'HLA-B35:24'
p6806
aS'HLA-B35:25'
p6807
aS'HLA-B35:26'
p6808
aS'HLA-B35:27'
p6809
aS'HLA-B35:28'
p6810
aS'HLA-B35:29'
p6811
aS'HLA-B35:30'
p6812
aS'HLA-B35:31'
p6813
aS'HLA-B35:32'
p6814
aS'HLA-B35:33'
p6815
aS'HLA-B35:34'
p6816
aS'HLA-B35:35'
p6817
aS'HLA-B35:36'
p6818
aS'HLA-B35:37'
p6819
aS'HLA-B35:38'
p6820
aS'HLA-B35:39'
p6821
aS'HLA-B35:41'
p6822
aS'HLA-B35:42'
p6823
aS'HLA-B35:43'
p6824
aS'HLA-B35:44'
p6825
aS'HLA-B35:45'
p6826
aS'HLA-B35:46'
p6827
aS'HLA-B35:47'
p6828
aS'HLA-B35:48'
p6829
aS'HLA-B35:49'
p6830
aS'HLA-B35:50'
p6831
aS'HLA-B35:51'
p6832
aS'HLA-B35:52'
p6833
aS'HLA-B35:54'
p6834
aS'HLA-B35:55'
p6835
aS'HLA-B35:56'
p6836
aS'HLA-B35:57'
p6837
aS'HLA-B35:58'
p6838
aS'HLA-B35:59'
p6839
aS'HLA-B35:60'
p6840
aS'HLA-B35:61'
p6841
aS'HLA-B35:62'
p6842
aS'HLA-B35:63'
p6843
aS'HLA-B35:64'
p6844
aS'HLA-B35:66'
p6845
aS'HLA-B35:67'
p6846
aS'HLA-B35:68'
p6847
aS'HLA-B35:69'
p6848
aS'HLA-B35:70'
p6849
aS'HLA-B35:71'
p6850
aS'HLA-B35:72'
p6851
aS'HLA-B35:74'
p6852
aS'HLA-B35:75'
p6853
aS'HLA-B35:76'
p6854
aS'HLA-B35:77'
p6855
aS'HLA-B35:78'
p6856
aS'HLA-B35:79'
p6857
aS'HLA-B35:80'
p6858
aS'HLA-B35:81'
p6859
aS'HLA-B35:82'
p6860
aS'HLA-B35:83'
p6861
aS'HLA-B35:84'
p6862
aS'HLA-B35:85'
p6863
aS'HLA-B35:86'
p6864
aS'HLA-B35:87'
p6865
aS'HLA-B35:88'
p6866
aS'HLA-B35:89'
p6867
aS'HLA-B35:90'
p6868
aS'HLA-B35:91'
p6869
aS'HLA-B35:92'
p6870
aS'HLA-B35:93'
p6871
aS'HLA-B35:94'
p6872
aS'HLA-B35:95'
p6873
aS'HLA-B35:96'
p6874
aS'HLA-B35:97'
p6875
aS'HLA-B35:98'
p6876
aS'HLA-B35:99'
p6877
aS'HLA-B35:100'
p6878
aS'HLA-B35:101'
p6879
aS'HLA-B35:102'
p6880
aS'HLA-B35:103'
p6881
aS'HLA-B35:104'
p6882
aS'HLA-B35:105'
p6883
aS'HLA-B35:106'
p6884
aS'HLA-B35:107'
p6885
aS'HLA-B35:108'
p6886
aS'HLA-B35:109'
p6887
aS'HLA-B35:110'
p6888
aS'HLA-B35:111'
p6889
aS'HLA-B35:112'
p6890
aS'HLA-B35:113'
p6891
aS'HLA-B35:114'
p6892
aS'HLA-B35:115'
p6893
aS'HLA-B35:116'
p6894
aS'HLA-B35:117'
p6895
aS'HLA-B35:118'
p6896
aS'HLA-B35:119'
p6897
aS'HLA-B35:120'
p6898
aS'HLA-B35:121'
p6899
aS'HLA-B35:122'
p6900
aS'HLA-B35:123'
p6901
aS'HLA-B35:124'
p6902
aS'HLA-B35:125'
p6903
aS'HLA-B35:126'
p6904
aS'HLA-B35:127'
p6905
aS'HLA-B35:128'
p6906
aS'HLA-B35:131'
p6907
aS'HLA-B35:132'
p6908
aS'HLA-B35:133'
p6909
aS'HLA-B35:135'
p6910
aS'HLA-B35:136'
p6911
aS'HLA-B35:137'
p6912
aS'HLA-B35:138'
p6913
aS'HLA-B35:139'
p6914
aS'HLA-B35:140'
p6915
aS'HLA-B35:141'
p6916
aS'HLA-B35:142'
p6917
aS'HLA-B35:143'
p6918
aS'HLA-B35:144'
p6919
aS'HLA-B37:01'
p6920
aS'HLA-B37:02'
p6921
aS'HLA-B37:04'
p6922
aS'HLA-B37:05'
p6923
aS'HLA-B37:06'
p6924
aS'HLA-B37:07'
p6925
aS'HLA-B37:08'
p6926
aS'HLA-B37:09'
p6927
aS'HLA-B37:10'
p6928
aS'HLA-B37:11'
p6929
aS'HLA-B37:12'
p6930
aS'HLA-B37:13'
p6931
aS'HLA-B37:14'
p6932
aS'HLA-B37:15'
p6933
aS'HLA-B37:17'
p6934
aS'HLA-B37:18'
p6935
aS'HLA-B37:19'
p6936
aS'HLA-B37:20'
p6937
aS'HLA-B37:21'
p6938
aS'HLA-B37:22'
p6939
aS'HLA-B37:23'
p6940
aS'HLA-B38:01'
p6941
aS'HLA-B38:02'
p6942
aS'HLA-B38:03'
p6943
aS'HLA-B38:04'
p6944
aS'HLA-B38:05'
p6945
aS'HLA-B38:06'
p6946
aS'HLA-B38:07'
p6947
aS'HLA-B38:08'
p6948
aS'HLA-B38:09'
p6949
aS'HLA-B38:10'
p6950
aS'HLA-B38:11'
p6951
aS'HLA-B38:12'
p6952
aS'HLA-B38:13'
p6953
aS'HLA-B38:14'
p6954
aS'HLA-B38:15'
p6955
aS'HLA-B38:16'
p6956
aS'HLA-B38:17'
p6957
aS'HLA-B38:18'
p6958
aS'HLA-B38:19'
p6959
aS'HLA-B38:20'
p6960
aS'HLA-B38:21'
p6961
aS'HLA-B38:22'
p6962
aS'HLA-B38:23'
p6963
aS'HLA-B39:01'
p6964
aS'HLA-B39:02'
p6965
aS'HLA-B39:03'
p6966
aS'HLA-B39:04'
p6967
aS'HLA-B39:05'
p6968
aS'HLA-B39:06'
p6969
aS'HLA-B39:07'
p6970
aS'HLA-B39:08'
p6971
aS'HLA-B39:09'
p6972
aS'HLA-B39:10'
p6973
aS'HLA-B39:11'
p6974
aS'HLA-B39:12'
p6975
aS'HLA-B39:13'
p6976
aS'HLA-B39:14'
p6977
aS'HLA-B39:15'
p6978
aS'HLA-B39:16'
p6979
aS'HLA-B39:17'
p6980
aS'HLA-B39:18'
p6981
aS'HLA-B39:19'
p6982
aS'HLA-B39:20'
p6983
aS'HLA-B39:22'
p6984
aS'HLA-B39:23'
p6985
aS'HLA-B39:24'
p6986
aS'HLA-B39:26'
p6987
aS'HLA-B39:27'
p6988
aS'HLA-B39:28'
p6989
aS'HLA-B39:29'
p6990
aS'HLA-B39:30'
p6991
aS'HLA-B39:31'
p6992
aS'HLA-B39:32'
p6993
aS'HLA-B39:33'
p6994
aS'HLA-B39:34'
p6995
aS'HLA-B39:35'
p6996
aS'HLA-B39:36'
p6997
aS'HLA-B39:37'
p6998
aS'HLA-B39:39'
p6999
aS'HLA-B39:41'
p7000
aS'HLA-B39:42'
p7001
aS'HLA-B39:43'
p7002
aS'HLA-B39:44'
p7003
aS'HLA-B39:45'
p7004
aS'HLA-B39:46'
p7005
aS'HLA-B39:47'
p7006
aS'HLA-B39:48'
p7007
aS'HLA-B39:49'
p7008
aS'HLA-B39:50'
p7009
aS'HLA-B39:51'
p7010
aS'HLA-B39:52'
p7011
aS'HLA-B39:53'
p7012
aS'HLA-B39:54'
p7013
aS'HLA-B39:55'
p7014
aS'HLA-B39:56'
p7015
aS'HLA-B39:57'
p7016
aS'HLA-B39:58'
p7017
aS'HLA-B39:59'
p7018
aS'HLA-B39:60'
p7019
aS'HLA-B40:01'
p7020
aS'HLA-B40:02'
p7021
aS'HLA-B40:03'
p7022
aS'HLA-B40:04'
p7023
aS'HLA-B40:05'
p7024
aS'HLA-B40:06'
p7025
aS'HLA-B40:07'
p7026
aS'HLA-B40:08'
p7027
aS'HLA-B40:09'
p7028
aS'HLA-B40:10'
p7029
aS'HLA-B40:11'
p7030
aS'HLA-B40:12'
p7031
aS'HLA-B40:13'
p7032
aS'HLA-B40:14'
p7033
aS'HLA-B40:15'
p7034
aS'HLA-B40:16'
p7035
aS'HLA-B40:18'
p7036
aS'HLA-B40:19'
p7037
aS'HLA-B40:20'
p7038
aS'HLA-B40:21'
p7039
aS'HLA-B40:23'
p7040
aS'HLA-B40:24'
p7041
aS'HLA-B40:25'
p7042
aS'HLA-B40:26'
p7043
aS'HLA-B40:27'
p7044
aS'HLA-B40:28'
p7045
aS'HLA-B40:29'
p7046
aS'HLA-B40:30'
p7047
aS'HLA-B40:31'
p7048
aS'HLA-B40:32'
p7049
aS'HLA-B40:33'
p7050
aS'HLA-B40:34'
p7051
aS'HLA-B40:35'
p7052
aS'HLA-B40:36'
p7053
aS'HLA-B40:37'
p7054
aS'HLA-B40:38'
p7055
aS'HLA-B40:39'
p7056
aS'HLA-B40:40'
p7057
aS'HLA-B40:42'
p7058
aS'HLA-B40:43'
p7059
aS'HLA-B40:44'
p7060
aS'HLA-B40:45'
p7061
aS'HLA-B40:46'
p7062
aS'HLA-B40:47'
p7063
aS'HLA-B40:48'
p7064
aS'HLA-B40:49'
p7065
aS'HLA-B40:50'
p7066
aS'HLA-B40:51'
p7067
aS'HLA-B40:52'
p7068
aS'HLA-B40:53'
p7069
aS'HLA-B40:54'
p7070
aS'HLA-B40:55'
p7071
aS'HLA-B40:56'
p7072
aS'HLA-B40:57'
p7073
aS'HLA-B40:58'
p7074
aS'HLA-B40:59'
p7075
aS'HLA-B40:60'
p7076
aS'HLA-B40:61'
p7077
aS'HLA-B40:62'
p7078
aS'HLA-B40:63'
p7079
aS'HLA-B40:64'
p7080
aS'HLA-B40:65'
p7081
aS'HLA-B40:66'
p7082
aS'HLA-B40:67'
p7083
aS'HLA-B40:68'
p7084
aS'HLA-B40:69'
p7085
aS'HLA-B40:70'
p7086
aS'HLA-B40:71'
p7087
aS'HLA-B40:72'
p7088
aS'HLA-B40:73'
p7089
aS'HLA-B40:74'
p7090
aS'HLA-B40:75'
p7091
aS'HLA-B40:76'
p7092
aS'HLA-B40:77'
p7093
aS'HLA-B40:78'
p7094
aS'HLA-B40:79'
p7095
aS'HLA-B40:80'
p7096
aS'HLA-B40:81'
p7097
aS'HLA-B40:82'
p7098
aS'HLA-B40:83'
p7099
aS'HLA-B40:84'
p7100
aS'HLA-B40:85'
p7101
aS'HLA-B40:86'
p7102
aS'HLA-B40:87'
p7103
aS'HLA-B40:88'
p7104
aS'HLA-B40:89'
p7105
aS'HLA-B40:90'
p7106
aS'HLA-B40:91'
p7107
aS'HLA-B40:92'
p7108
aS'HLA-B40:93'
p7109
aS'HLA-B40:94'
p7110
aS'HLA-B40:95'
p7111
aS'HLA-B40:96'
p7112
aS'HLA-B40:97'
p7113
aS'HLA-B40:98'
p7114
aS'HLA-B40:99'
p7115
aS'HLA-B40:100'
p7116
aS'HLA-B40:101'
p7117
aS'HLA-B40:102'
p7118
aS'HLA-B40:103'
p7119
aS'HLA-B40:104'
p7120
aS'HLA-B40:105'
p7121
aS'HLA-B40:106'
p7122
aS'HLA-B40:107'
p7123
aS'HLA-B40:108'
p7124
aS'HLA-B40:109'
p7125
aS'HLA-B40:110'
p7126
aS'HLA-B40:111'
p7127
aS'HLA-B40:112'
p7128
aS'HLA-B40:113'
p7129
aS'HLA-B40:114'
p7130
aS'HLA-B40:115'
p7131
aS'HLA-B40:116'
p7132
aS'HLA-B40:117'
p7133
aS'HLA-B40:119'
p7134
aS'HLA-B40:120'
p7135
aS'HLA-B40:121'
p7136
aS'HLA-B40:122'
p7137
aS'HLA-B40:123'
p7138
aS'HLA-B40:124'
p7139
aS'HLA-B40:125'
p7140
aS'HLA-B40:126'
p7141
aS'HLA-B40:127'
p7142
aS'HLA-B40:128'
p7143
aS'HLA-B40:129'
p7144
aS'HLA-B40:130'
p7145
aS'HLA-B40:131'
p7146
aS'HLA-B40:132'
p7147
aS'HLA-B40:134'
p7148
aS'HLA-B40:135'
p7149
aS'HLA-B40:136'
p7150
aS'HLA-B40:137'
p7151
aS'HLA-B40:138'
p7152
aS'HLA-B40:139'
p7153
aS'HLA-B40:140'
p7154
aS'HLA-B40:141'
p7155
aS'HLA-B40:143'
p7156
aS'HLA-B40:145'
p7157
aS'HLA-B40:146'
p7158
aS'HLA-B40:147'
p7159
aS'HLA-B41:01'
p7160
aS'HLA-B41:02'
p7161
aS'HLA-B41:03'
p7162
aS'HLA-B41:04'
p7163
aS'HLA-B41:05'
p7164
aS'HLA-B41:06'
p7165
aS'HLA-B41:07'
p7166
aS'HLA-B41:08'
p7167
aS'HLA-B41:09'
p7168
aS'HLA-B41:10'
p7169
aS'HLA-B41:11'
p7170
aS'HLA-B41:12'
p7171
aS'HLA-B42:01'
p7172
aS'HLA-B42:02'
p7173
aS'HLA-B42:04'
p7174
aS'HLA-B42:05'
p7175
aS'HLA-B42:06'
p7176
aS'HLA-B42:07'
p7177
aS'HLA-B42:08'
p7178
aS'HLA-B42:09'
p7179
aS'HLA-B42:10'
p7180
aS'HLA-B42:11'
p7181
aS'HLA-B42:12'
p7182
aS'HLA-B42:13'
p7183
aS'HLA-B42:14'
p7184
aS'HLA-B44:02'
p7185
aS'HLA-B44:03'
p7186
aS'HLA-B44:04'
p7187
aS'HLA-B44:05'
p7188
aS'HLA-B44:06'
p7189
aS'HLA-B44:07'
p7190
aS'HLA-B44:08'
p7191
aS'HLA-B44:09'
p7192
aS'HLA-B44:10'
p7193
aS'HLA-B44:11'
p7194
aS'HLA-B44:12'
p7195
aS'HLA-B44:13'
p7196
aS'HLA-B44:14'
p7197
aS'HLA-B44:15'
p7198
aS'HLA-B44:16'
p7199
aS'HLA-B44:17'
p7200
aS'HLA-B44:18'
p7201
aS'HLA-B44:20'
p7202
aS'HLA-B44:21'
p7203
aS'HLA-B44:22'
p7204
aS'HLA-B44:24'
p7205
aS'HLA-B44:25'
p7206
aS'HLA-B44:26'
p7207
aS'HLA-B44:27'
p7208
aS'HLA-B44:28'
p7209
aS'HLA-B44:29'
p7210
aS'HLA-B44:30'
p7211
aS'HLA-B44:31'
p7212
aS'HLA-B44:32'
p7213
aS'HLA-B44:33'
p7214
aS'HLA-B44:34'
p7215
aS'HLA-B44:35'
p7216
aS'HLA-B44:36'
p7217
aS'HLA-B44:37'
p7218
aS'HLA-B44:38'
p7219
aS'HLA-B44:39'
p7220
aS'HLA-B44:40'
p7221
aS'HLA-B44:41'
p7222
aS'HLA-B44:42'
p7223
aS'HLA-B44:43'
p7224
aS'HLA-B44:44'
p7225
aS'HLA-B44:45'
p7226
aS'HLA-B44:46'
p7227
aS'HLA-B44:47'
p7228
aS'HLA-B44:48'
p7229
aS'HLA-B44:49'
p7230
aS'HLA-B44:50'
p7231
aS'HLA-B44:51'
p7232
aS'HLA-B44:53'
p7233
aS'HLA-B44:54'
p7234
aS'HLA-B44:55'
p7235
aS'HLA-B44:57'
p7236
aS'HLA-B44:59'
p7237
aS'HLA-B44:60'
p7238
aS'HLA-B44:62'
p7239
aS'HLA-B44:63'
p7240
aS'HLA-B44:64'
p7241
aS'HLA-B44:65'
p7242
aS'HLA-B44:66'
p7243
aS'HLA-B44:67'
p7244
aS'HLA-B44:68'
p7245
aS'HLA-B44:69'
p7246
aS'HLA-B44:70'
p7247
aS'HLA-B44:71'
p7248
aS'HLA-B44:72'
p7249
aS'HLA-B44:73'
p7250
aS'HLA-B44:74'
p7251
aS'HLA-B44:75'
p7252
aS'HLA-B44:76'
p7253
aS'HLA-B44:77'
p7254
aS'HLA-B44:78'
p7255
aS'HLA-B44:79'
p7256
aS'HLA-B44:80'
p7257
aS'HLA-B44:81'
p7258
aS'HLA-B44:82'
p7259
aS'HLA-B44:83'
p7260
aS'HLA-B44:84'
p7261
aS'HLA-B44:85'
p7262
aS'HLA-B44:86'
p7263
aS'HLA-B44:87'
p7264
aS'HLA-B44:88'
p7265
aS'HLA-B44:89'
p7266
aS'HLA-B44:90'
p7267
aS'HLA-B44:91'
p7268
aS'HLA-B44:92'
p7269
aS'HLA-B44:93'
p7270
aS'HLA-B44:94'
p7271
aS'HLA-B44:95'
p7272
aS'HLA-B44:96'
p7273
aS'HLA-B44:97'
p7274
aS'HLA-B44:98'
p7275
aS'HLA-B44:99'
p7276
aS'HLA-B44:100'
p7277
aS'HLA-B44:101'
p7278
aS'HLA-B44:102'
p7279
aS'HLA-B44:103'
p7280
aS'HLA-B44:104'
p7281
aS'HLA-B44:105'
p7282
aS'HLA-B44:106'
p7283
aS'HLA-B44:107'
p7284
aS'HLA-B44:109'
p7285
aS'HLA-B44:110'
p7286
aS'HLA-B45:01'
p7287
aS'HLA-B45:02'
p7288
aS'HLA-B45:03'
p7289
aS'HLA-B45:04'
p7290
aS'HLA-B45:05'
p7291
aS'HLA-B45:06'
p7292
aS'HLA-B45:07'
p7293
aS'HLA-B45:08'
p7294
aS'HLA-B45:09'
p7295
aS'HLA-B45:10'
p7296
aS'HLA-B45:11'
p7297
aS'HLA-B45:12'
p7298
aS'HLA-B46:01'
p7299
aS'HLA-B46:02'
p7300
aS'HLA-B46:03'
p7301
aS'HLA-B46:04'
p7302
aS'HLA-B46:05'
p7303
aS'HLA-B46:06'
p7304
aS'HLA-B46:08'
p7305
aS'HLA-B46:09'
p7306
aS'HLA-B46:10'
p7307
aS'HLA-B46:11'
p7308
aS'HLA-B46:12'
p7309
aS'HLA-B46:13'
p7310
aS'HLA-B46:14'
p7311
aS'HLA-B46:16'
p7312
aS'HLA-B46:17'
p7313
aS'HLA-B46:18'
p7314
aS'HLA-B46:19'
p7315
aS'HLA-B46:20'
p7316
aS'HLA-B46:21'
p7317
aS'HLA-B46:22'
p7318
aS'HLA-B46:23'
p7319
aS'HLA-B46:24'
p7320
aS'HLA-B47:01'
p7321
aS'HLA-B47:02'
p7322
aS'HLA-B47:03'
p7323
aS'HLA-B47:04'
p7324
aS'HLA-B47:05'
p7325
aS'HLA-B47:06'
p7326
aS'HLA-B47:07'
p7327
aS'HLA-B48:01'
p7328
aS'HLA-B48:02'
p7329
aS'HLA-B48:03'
p7330
aS'HLA-B48:04'
p7331
aS'HLA-B48:05'
p7332
aS'HLA-B48:06'
p7333
aS'HLA-B48:07'
p7334
aS'HLA-B48:08'
p7335
aS'HLA-B48:09'
p7336
aS'HLA-B48:10'
p7337
aS'HLA-B48:11'
p7338
aS'HLA-B48:12'
p7339
aS'HLA-B48:13'
p7340
aS'HLA-B48:14'
p7341
aS'HLA-B48:15'
p7342
aS'HLA-B48:16'
p7343
aS'HLA-B48:17'
p7344
aS'HLA-B48:18'
p7345
aS'HLA-B48:19'
p7346
aS'HLA-B48:20'
p7347
aS'HLA-B48:21'
p7348
aS'HLA-B48:22'
p7349
aS'HLA-B48:23'
p7350
aS'HLA-B49:01'
p7351
aS'HLA-B49:02'
p7352
aS'HLA-B49:03'
p7353
aS'HLA-B49:04'
p7354
aS'HLA-B49:05'
p7355
aS'HLA-B49:06'
p7356
aS'HLA-B49:07'
p7357
aS'HLA-B49:08'
p7358
aS'HLA-B49:09'
p7359
aS'HLA-B49:10'
p7360
aS'HLA-B50:01'
p7361
aS'HLA-B50:02'
p7362
aS'HLA-B50:04'
p7363
aS'HLA-B50:05'
p7364
aS'HLA-B50:06'
p7365
aS'HLA-B50:07'
p7366
aS'HLA-B50:08'
p7367
aS'HLA-B50:09'
p7368
aS'HLA-B51:01'
p7369
aS'HLA-B51:02'
p7370
aS'HLA-B51:03'
p7371
aS'HLA-B51:04'
p7372
aS'HLA-B51:05'
p7373
aS'HLA-B51:06'
p7374
aS'HLA-B51:07'
p7375
aS'HLA-B51:08'
p7376
aS'HLA-B51:09'
p7377
aS'HLA-B51:12'
p7378
aS'HLA-B51:13'
p7379
aS'HLA-B51:14'
p7380
aS'HLA-B51:15'
p7381
aS'HLA-B51:16'
p7382
aS'HLA-B51:17'
p7383
aS'HLA-B51:18'
p7384
aS'HLA-B51:19'
p7385
aS'HLA-B51:20'
p7386
aS'HLA-B51:21'
p7387
aS'HLA-B51:22'
p7388
aS'HLA-B51:23'
p7389
aS'HLA-B51:24'
p7390
aS'HLA-B51:26'
p7391
aS'HLA-B51:28'
p7392
aS'HLA-B51:29'
p7393
aS'HLA-B51:30'
p7394
aS'HLA-B51:31'
p7395
aS'HLA-B51:32'
p7396
aS'HLA-B51:33'
p7397
aS'HLA-B51:34'
p7398
aS'HLA-B51:35'
p7399
aS'HLA-B51:36'
p7400
aS'HLA-B51:37'
p7401
aS'HLA-B51:38'
p7402
aS'HLA-B51:39'
p7403
aS'HLA-B51:40'
p7404
aS'HLA-B51:42'
p7405
aS'HLA-B51:43'
p7406
aS'HLA-B51:45'
p7407
aS'HLA-B51:46'
p7408
aS'HLA-B51:48'
p7409
aS'HLA-B51:49'
p7410
aS'HLA-B51:50'
p7411
aS'HLA-B51:51'
p7412
aS'HLA-B51:52'
p7413
aS'HLA-B51:53'
p7414
aS'HLA-B51:54'
p7415
aS'HLA-B51:55'
p7416
aS'HLA-B51:56'
p7417
aS'HLA-B51:57'
p7418
aS'HLA-B51:58'
p7419
aS'HLA-B51:59'
p7420
aS'HLA-B51:60'
p7421
aS'HLA-B51:61'
p7422
aS'HLA-B51:62'
p7423
aS'HLA-B51:63'
p7424
aS'HLA-B51:64'
p7425
aS'HLA-B51:65'
p7426
aS'HLA-B51:66'
p7427
aS'HLA-B51:67'
p7428
aS'HLA-B51:68'
p7429
aS'HLA-B51:69'
p7430
aS'HLA-B51:70'
p7431
aS'HLA-B51:71'
p7432
aS'HLA-B51:72'
p7433
aS'HLA-B51:73'
p7434
aS'HLA-B51:74'
p7435
aS'HLA-B51:75'
p7436
aS'HLA-B51:76'
p7437
aS'HLA-B51:77'
p7438
aS'HLA-B51:78'
p7439
aS'HLA-B51:79'
p7440
aS'HLA-B51:80'
p7441
aS'HLA-B51:81'
p7442
aS'HLA-B51:82'
p7443
aS'HLA-B51:83'
p7444
aS'HLA-B51:84'
p7445
aS'HLA-B51:85'
p7446
aS'HLA-B51:86'
p7447
aS'HLA-B51:87'
p7448
aS'HLA-B51:88'
p7449
aS'HLA-B51:89'
p7450
aS'HLA-B51:90'
p7451
aS'HLA-B51:91'
p7452
aS'HLA-B51:92'
p7453
aS'HLA-B51:93'
p7454
aS'HLA-B51:94'
p7455
aS'HLA-B51:95'
p7456
aS'HLA-B51:96'
p7457
aS'HLA-B52:01'
p7458
aS'HLA-B52:02'
p7459
aS'HLA-B52:03'
p7460
aS'HLA-B52:04'
p7461
aS'HLA-B52:05'
p7462
aS'HLA-B52:06'
p7463
aS'HLA-B52:07'
p7464
aS'HLA-B52:08'
p7465
aS'HLA-B52:09'
p7466
aS'HLA-B52:10'
p7467
aS'HLA-B52:11'
p7468
aS'HLA-B52:12'
p7469
aS'HLA-B52:13'
p7470
aS'HLA-B52:14'
p7471
aS'HLA-B52:15'
p7472
aS'HLA-B52:16'
p7473
aS'HLA-B52:17'
p7474
aS'HLA-B52:18'
p7475
aS'HLA-B52:19'
p7476
aS'HLA-B52:20'
p7477
aS'HLA-B52:21'
p7478
aS'HLA-B53:01'
p7479
aS'HLA-B53:02'
p7480
aS'HLA-B53:03'
p7481
aS'HLA-B53:04'
p7482
aS'HLA-B53:05'
p7483
aS'HLA-B53:06'
p7484
aS'HLA-B53:07'
p7485
aS'HLA-B53:08'
p7486
aS'HLA-B53:09'
p7487
aS'HLA-B53:10'
p7488
aS'HLA-B53:11'
p7489
aS'HLA-B53:12'
p7490
aS'HLA-B53:13'
p7491
aS'HLA-B53:14'
p7492
aS'HLA-B53:15'
p7493
aS'HLA-B53:16'
p7494
aS'HLA-B53:17'
p7495
aS'HLA-B53:18'
p7496
aS'HLA-B53:19'
p7497
aS'HLA-B53:20'
p7498
aS'HLA-B53:21'
p7499
aS'HLA-B53:22'
p7500
aS'HLA-B53:23'
p7501
aS'HLA-B54:01'
p7502
aS'HLA-B54:02'
p7503
aS'HLA-B54:03'
p7504
aS'HLA-B54:04'
p7505
aS'HLA-B54:06'
p7506
aS'HLA-B54:07'
p7507
aS'HLA-B54:09'
p7508
aS'HLA-B54:10'
p7509
aS'HLA-B54:11'
p7510
aS'HLA-B54:12'
p7511
aS'HLA-B54:13'
p7512
aS'HLA-B54:14'
p7513
aS'HLA-B54:15'
p7514
aS'HLA-B54:16'
p7515
aS'HLA-B54:17'
p7516
aS'HLA-B54:18'
p7517
aS'HLA-B54:19'
p7518
aS'HLA-B54:20'
p7519
aS'HLA-B54:21'
p7520
aS'HLA-B54:22'
p7521
aS'HLA-B54:23'
p7522
aS'HLA-B55:01'
p7523
aS'HLA-B55:02'
p7524
aS'HLA-B55:03'
p7525
aS'HLA-B55:04'
p7526
aS'HLA-B55:05'
p7527
aS'HLA-B55:07'
p7528
aS'HLA-B55:08'
p7529
aS'HLA-B55:09'
p7530
aS'HLA-B55:10'
p7531
aS'HLA-B55:11'
p7532
aS'HLA-B55:12'
p7533
aS'HLA-B55:13'
p7534
aS'HLA-B55:14'
p7535
aS'HLA-B55:15'
p7536
aS'HLA-B55:16'
p7537
aS'HLA-B55:17'
p7538
aS'HLA-B55:18'
p7539
aS'HLA-B55:19'
p7540
aS'HLA-B55:20'
p7541
aS'HLA-B55:21'
p7542
aS'HLA-B55:22'
p7543
aS'HLA-B55:23'
p7544
aS'HLA-B55:24'
p7545
aS'HLA-B55:25'
p7546
aS'HLA-B55:26'
p7547
aS'HLA-B55:27'
p7548
aS'HLA-B55:28'
p7549
aS'HLA-B55:29'
p7550
aS'HLA-B55:30'
p7551
aS'HLA-B55:31'
p7552
aS'HLA-B55:32'
p7553
aS'HLA-B55:33'
p7554
aS'HLA-B55:34'
p7555
aS'HLA-B55:35'
p7556
aS'HLA-B55:36'
p7557
aS'HLA-B55:37'
p7558
aS'HLA-B55:38'
p7559
aS'HLA-B55:39'
p7560
aS'HLA-B55:40'
p7561
aS'HLA-B55:41'
p7562
aS'HLA-B55:42'
p7563
aS'HLA-B55:43'
p7564
aS'HLA-B56:01'
p7565
aS'HLA-B56:02'
p7566
aS'HLA-B56:03'
p7567
aS'HLA-B56:04'
p7568
aS'HLA-B56:05'
p7569
aS'HLA-B56:06'
p7570
aS'HLA-B56:07'
p7571
aS'HLA-B56:08'
p7572
aS'HLA-B56:09'
p7573
aS'HLA-B56:10'
p7574
aS'HLA-B56:11'
p7575
aS'HLA-B56:12'
p7576
aS'HLA-B56:13'
p7577
aS'HLA-B56:14'
p7578
aS'HLA-B56:15'
p7579
aS'HLA-B56:16'
p7580
aS'HLA-B56:17'
p7581
aS'HLA-B56:18'
p7582
aS'HLA-B56:20'
p7583
aS'HLA-B56:21'
p7584
aS'HLA-B56:22'
p7585
aS'HLA-B56:23'
p7586
aS'HLA-B56:24'
p7587
aS'HLA-B56:25'
p7588
aS'HLA-B56:26'
p7589
aS'HLA-B56:27'
p7590
aS'HLA-B56:29'
p7591
aS'HLA-B57:01'
p7592
aS'HLA-B57:02'
p7593
aS'HLA-B57:03'
p7594
aS'HLA-B57:04'
p7595
aS'HLA-B57:05'
p7596
aS'HLA-B57:06'
p7597
aS'HLA-B57:07'
p7598
aS'HLA-B57:08'
p7599
aS'HLA-B57:09'
p7600
aS'HLA-B57:10'
p7601
aS'HLA-B57:11'
p7602
aS'HLA-B57:12'
p7603
aS'HLA-B57:13'
p7604
aS'HLA-B57:14'
p7605
aS'HLA-B57:15'
p7606
aS'HLA-B57:16'
p7607
aS'HLA-B57:17'
p7608
aS'HLA-B57:18'
p7609
aS'HLA-B57:19'
p7610
aS'HLA-B57:20'
p7611
aS'HLA-B57:21'
p7612
aS'HLA-B57:22'
p7613
aS'HLA-B57:23'
p7614
aS'HLA-B57:24'
p7615
aS'HLA-B57:25'
p7616
aS'HLA-B57:26'
p7617
aS'HLA-B57:27'
p7618
aS'HLA-B57:29'
p7619
aS'HLA-B57:30'
p7620
aS'HLA-B57:31'
p7621
aS'HLA-B57:32'
p7622
aS'HLA-B58:01'
p7623
aS'HLA-B58:02'
p7624
aS'HLA-B58:04'
p7625
aS'HLA-B58:05'
p7626
aS'HLA-B58:06'
p7627
aS'HLA-B58:07'
p7628
aS'HLA-B58:08'
p7629
aS'HLA-B58:09'
p7630
aS'HLA-B58:11'
p7631
aS'HLA-B58:12'
p7632
aS'HLA-B58:13'
p7633
aS'HLA-B58:14'
p7634
aS'HLA-B58:15'
p7635
aS'HLA-B58:16'
p7636
aS'HLA-B58:18'
p7637
aS'HLA-B58:19'
p7638
aS'HLA-B58:20'
p7639
aS'HLA-B58:21'
p7640
aS'HLA-B58:22'
p7641
aS'HLA-B58:23'
p7642
aS'HLA-B58:24'
p7643
aS'HLA-B58:25'
p7644
aS'HLA-B58:26'
p7645
aS'HLA-B58:27'
p7646
aS'HLA-B58:28'
p7647
aS'HLA-B58:29'
p7648
aS'HLA-B58:30'
p7649
aS'HLA-B59:01'
p7650
aS'HLA-B59:02'
p7651
aS'HLA-B59:03'
p7652
aS'HLA-B59:04'
p7653
aS'HLA-B59:05'
p7654
aS'HLA-B67:01'
p7655
aS'HLA-B67:02'
p7656
aS'HLA-B73:01'
p7657
aS'HLA-B73:02'
p7658
aS'HLA-B78:01'
p7659
aS'HLA-B78:02'
p7660
aS'HLA-B78:03'
p7661
aS'HLA-B78:04'
p7662
aS'HLA-B78:05'
p7663
aS'HLA-B78:06'
p7664
aS'HLA-B78:07'
p7665
aS'HLA-B81:01'
p7666
aS'HLA-B81:02'
p7667
aS'HLA-B81:03'
p7668
aS'HLA-B81:05'
p7669
aS'HLA-B82:01'
p7670
aS'HLA-B82:02'
p7671
aS'HLA-B82:03'
p7672
aS'HLA-B83:01'
p7673
aS'HLA-C01:02'
p7674
aS'HLA-C01:03'
p7675
aS'HLA-C01:04'
p7676
aS'HLA-C01:05'
p7677
aS'HLA-C01:06'
p7678
aS'HLA-C01:07'
p7679
aS'HLA-C01:08'
p7680
aS'HLA-C01:09'
p7681
aS'HLA-C01:10'
p7682
aS'HLA-C01:11'
p7683
aS'HLA-C01:12'
p7684
aS'HLA-C01:13'
p7685
aS'HLA-C01:14'
p7686
aS'HLA-C01:15'
p7687
aS'HLA-C01:16'
p7688
aS'HLA-C01:17'
p7689
aS'HLA-C01:18'
p7690
aS'HLA-C01:19'
p7691
aS'HLA-C01:20'
p7692
aS'HLA-C01:21'
p7693
aS'HLA-C01:22'
p7694
aS'HLA-C01:23'
p7695
aS'HLA-C01:24'
p7696
aS'HLA-C01:25'
p7697
aS'HLA-C01:26'
p7698
aS'HLA-C01:27'
p7699
aS'HLA-C01:28'
p7700
aS'HLA-C01:29'
p7701
aS'HLA-C01:30'
p7702
aS'HLA-C01:31'
p7703
aS'HLA-C01:32'
p7704
aS'HLA-C01:33'
p7705
aS'HLA-C01:34'
p7706
aS'HLA-C01:35'
p7707
aS'HLA-C01:36'
p7708
aS'HLA-C01:38'
p7709
aS'HLA-C01:39'
p7710
aS'HLA-C01:40'
p7711
aS'HLA-C02:02'
p7712
aS'HLA-C02:03'
p7713
aS'HLA-C02:04'
p7714
aS'HLA-C02:05'
p7715
aS'HLA-C02:06'
p7716
aS'HLA-C02:07'
p7717
aS'HLA-C02:08'
p7718
aS'HLA-C02:09'
p7719
aS'HLA-C02:10'
p7720
aS'HLA-C02:11'
p7721
aS'HLA-C02:12'
p7722
aS'HLA-C02:13'
p7723
aS'HLA-C02:14'
p7724
aS'HLA-C02:15'
p7725
aS'HLA-C02:16'
p7726
aS'HLA-C02:17'
p7727
aS'HLA-C02:18'
p7728
aS'HLA-C02:19'
p7729
aS'HLA-C02:20'
p7730
aS'HLA-C02:21'
p7731
aS'HLA-C02:22'
p7732
aS'HLA-C02:23'
p7733
aS'HLA-C02:24'
p7734
aS'HLA-C02:26'
p7735
aS'HLA-C02:27'
p7736
aS'HLA-C02:28'
p7737
aS'HLA-C02:29'
p7738
aS'HLA-C02:30'
p7739
aS'HLA-C02:31'
p7740
aS'HLA-C02:32'
p7741
aS'HLA-C02:33'
p7742
aS'HLA-C02:34'
p7743
aS'HLA-C02:35'
p7744
aS'HLA-C02:36'
p7745
aS'HLA-C02:37'
p7746
aS'HLA-C02:39'
p7747
aS'HLA-C02:40'
p7748
aS'HLA-C03:01'
p7749
aS'HLA-C03:02'
p7750
aS'HLA-C03:03'
p7751
aS'HLA-C03:04'
p7752
aS'HLA-C03:05'
p7753
aS'HLA-C03:06'
p7754
aS'HLA-C03:07'
p7755
aS'HLA-C03:08'
p7756
aS'HLA-C03:09'
p7757
aS'HLA-C03:10'
p7758
aS'HLA-C03:11'
p7759
aS'HLA-C03:12'
p7760
aS'HLA-C03:13'
p7761
aS'HLA-C03:14'
p7762
aS'HLA-C03:15'
p7763
aS'HLA-C03:16'
p7764
aS'HLA-C03:17'
p7765
aS'HLA-C03:18'
p7766
aS'HLA-C03:19'
p7767
aS'HLA-C03:21'
p7768
aS'HLA-C03:23'
p7769
aS'HLA-C03:24'
p7770
aS'HLA-C03:25'
p7771
aS'HLA-C03:26'
p7772
aS'HLA-C03:27'
p7773
aS'HLA-C03:28'
p7774
aS'HLA-C03:29'
p7775
aS'HLA-C03:30'
p7776
aS'HLA-C03:31'
p7777
aS'HLA-C03:32'
p7778
aS'HLA-C03:33'
p7779
aS'HLA-C03:34'
p7780
aS'HLA-C03:35'
p7781
aS'HLA-C03:36'
p7782
aS'HLA-C03:37'
p7783
aS'HLA-C03:38'
p7784
aS'HLA-C03:39'
p7785
aS'HLA-C03:40'
p7786
aS'HLA-C03:41'
p7787
aS'HLA-C03:42'
p7788
aS'HLA-C03:43'
p7789
aS'HLA-C03:44'
p7790
aS'HLA-C03:45'
p7791
aS'HLA-C03:46'
p7792
aS'HLA-C03:47'
p7793
aS'HLA-C03:48'
p7794
aS'HLA-C03:49'
p7795
aS'HLA-C03:50'
p7796
aS'HLA-C03:51'
p7797
aS'HLA-C03:52'
p7798
aS'HLA-C03:53'
p7799
aS'HLA-C03:54'
p7800
aS'HLA-C03:55'
p7801
aS'HLA-C03:56'
p7802
aS'HLA-C03:57'
p7803
aS'HLA-C03:58'
p7804
aS'HLA-C03:59'
p7805
aS'HLA-C03:60'
p7806
aS'HLA-C03:61'
p7807
aS'HLA-C03:62'
p7808
aS'HLA-C03:63'
p7809
aS'HLA-C03:64'
p7810
aS'HLA-C03:65'
p7811
aS'HLA-C03:66'
p7812
aS'HLA-C03:67'
p7813
aS'HLA-C03:68'
p7814
aS'HLA-C03:69'
p7815
aS'HLA-C03:70'
p7816
aS'HLA-C03:71'
p7817
aS'HLA-C03:72'
p7818
aS'HLA-C03:73'
p7819
aS'HLA-C03:74'
p7820
aS'HLA-C03:75'
p7821
aS'HLA-C03:76'
p7822
aS'HLA-C03:77'
p7823
aS'HLA-C03:78'
p7824
aS'HLA-C03:79'
p7825
aS'HLA-C03:80'
p7826
aS'HLA-C03:81'
p7827
aS'HLA-C03:82'
p7828
aS'HLA-C03:83'
p7829
aS'HLA-C03:84'
p7830
aS'HLA-C03:85'
p7831
aS'HLA-C03:86'
p7832
aS'HLA-C03:87'
p7833
aS'HLA-C03:88'
p7834
aS'HLA-C03:89'
p7835
aS'HLA-C03:90'
p7836
aS'HLA-C03:91'
p7837
aS'HLA-C03:92'
p7838
aS'HLA-C03:93'
p7839
aS'HLA-C03:94'
p7840
aS'HLA-C04:01'
p7841
aS'HLA-C04:03'
p7842
aS'HLA-C04:04'
p7843
aS'HLA-C04:05'
p7844
aS'HLA-C04:06'
p7845
aS'HLA-C04:07'
p7846
aS'HLA-C04:08'
p7847
aS'HLA-C04:10'
p7848
aS'HLA-C04:11'
p7849
aS'HLA-C04:12'
p7850
aS'HLA-C04:13'
p7851
aS'HLA-C04:14'
p7852
aS'HLA-C04:15'
p7853
aS'HLA-C04:16'
p7854
aS'HLA-C04:17'
p7855
aS'HLA-C04:18'
p7856
aS'HLA-C04:19'
p7857
aS'HLA-C04:20'
p7858
aS'HLA-C04:23'
p7859
aS'HLA-C04:24'
p7860
aS'HLA-C04:25'
p7861
aS'HLA-C04:26'
p7862
aS'HLA-C04:27'
p7863
aS'HLA-C04:28'
p7864
aS'HLA-C04:29'
p7865
aS'HLA-C04:30'
p7866
aS'HLA-C04:31'
p7867
aS'HLA-C04:32'
p7868
aS'HLA-C04:33'
p7869
aS'HLA-C04:34'
p7870
aS'HLA-C04:35'
p7871
aS'HLA-C04:36'
p7872
aS'HLA-C04:37'
p7873
aS'HLA-C04:38'
p7874
aS'HLA-C04:39'
p7875
aS'HLA-C04:40'
p7876
aS'HLA-C04:41'
p7877
aS'HLA-C04:42'
p7878
aS'HLA-C04:43'
p7879
aS'HLA-C04:44'
p7880
aS'HLA-C04:45'
p7881
aS'HLA-C04:46'
p7882
aS'HLA-C04:47'
p7883
aS'HLA-C04:48'
p7884
aS'HLA-C04:49'
p7885
aS'HLA-C04:50'
p7886
aS'HLA-C04:51'
p7887
aS'HLA-C04:52'
p7888
aS'HLA-C04:53'
p7889
aS'HLA-C04:54'
p7890
aS'HLA-C04:55'
p7891
aS'HLA-C04:56'
p7892
aS'HLA-C04:57'
p7893
aS'HLA-C04:58'
p7894
aS'HLA-C04:60'
p7895
aS'HLA-C04:61'
p7896
aS'HLA-C04:62'
p7897
aS'HLA-C04:63'
p7898
aS'HLA-C04:64'
p7899
aS'HLA-C04:65'
p7900
aS'HLA-C04:66'
p7901
aS'HLA-C04:67'
p7902
aS'HLA-C04:68'
p7903
aS'HLA-C04:69'
p7904
aS'HLA-C04:70'
p7905
aS'HLA-C05:01'
p7906
aS'HLA-C05:03'
p7907
aS'HLA-C05:04'
p7908
aS'HLA-C05:05'
p7909
aS'HLA-C05:06'
p7910
aS'HLA-C05:08'
p7911
aS'HLA-C05:09'
p7912
aS'HLA-C05:10'
p7913
aS'HLA-C05:11'
p7914
aS'HLA-C05:12'
p7915
aS'HLA-C05:13'
p7916
aS'HLA-C05:14'
p7917
aS'HLA-C05:15'
p7918
aS'HLA-C05:16'
p7919
aS'HLA-C05:17'
p7920
aS'HLA-C05:18'
p7921
aS'HLA-C05:19'
p7922
aS'HLA-C05:20'
p7923
aS'HLA-C05:21'
p7924
aS'HLA-C05:22'
p7925
aS'HLA-C05:23'
p7926
aS'HLA-C05:24'
p7927
aS'HLA-C05:25'
p7928
aS'HLA-C05:26'
p7929
aS'HLA-C05:27'
p7930
aS'HLA-C05:28'
p7931
aS'HLA-C05:29'
p7932
aS'HLA-C05:30'
p7933
aS'HLA-C05:31'
p7934
aS'HLA-C05:32'
p7935
aS'HLA-C05:33'
p7936
aS'HLA-C05:34'
p7937
aS'HLA-C05:35'
p7938
aS'HLA-C05:36'
p7939
aS'HLA-C05:37'
p7940
aS'HLA-C05:38'
p7941
aS'HLA-C05:39'
p7942
aS'HLA-C05:40'
p7943
aS'HLA-C05:41'
p7944
aS'HLA-C05:42'
p7945
aS'HLA-C05:43'
p7946
aS'HLA-C05:44'
p7947
aS'HLA-C05:45'
p7948
aS'HLA-C06:02'
p7949
aS'HLA-C06:03'
p7950
aS'HLA-C06:04'
p7951
aS'HLA-C06:05'
p7952
aS'HLA-C06:06'
p7953
aS'HLA-C06:07'
p7954
aS'HLA-C06:08'
p7955
aS'HLA-C06:09'
p7956
aS'HLA-C06:10'
p7957
aS'HLA-C06:11'
p7958
aS'HLA-C06:12'
p7959
aS'HLA-C06:13'
p7960
aS'HLA-C06:14'
p7961
aS'HLA-C06:15'
p7962
aS'HLA-C06:17'
p7963
aS'HLA-C06:18'
p7964
aS'HLA-C06:19'
p7965
aS'HLA-C06:20'
p7966
aS'HLA-C06:21'
p7967
aS'HLA-C06:22'
p7968
aS'HLA-C06:23'
p7969
aS'HLA-C06:24'
p7970
aS'HLA-C06:25'
p7971
aS'HLA-C06:26'
p7972
aS'HLA-C06:27'
p7973
aS'HLA-C06:28'
p7974
aS'HLA-C06:29'
p7975
aS'HLA-C06:30'
p7976
aS'HLA-C06:31'
p7977
aS'HLA-C06:32'
p7978
aS'HLA-C06:33'
p7979
aS'HLA-C06:34'
p7980
aS'HLA-C06:35'
p7981
aS'HLA-C06:36'
p7982
aS'HLA-C06:37'
p7983
aS'HLA-C06:38'
p7984
aS'HLA-C06:39'
p7985
aS'HLA-C06:40'
p7986
aS'HLA-C06:41'
p7987
aS'HLA-C06:42'
p7988
aS'HLA-C06:43'
p7989
aS'HLA-C06:44'
p7990
aS'HLA-C06:45'
p7991
aS'HLA-C07:01'
p7992
aS'HLA-C07:02'
p7993
aS'HLA-C07:03'
p7994
aS'HLA-C07:04'
p7995
aS'HLA-C07:05'
p7996
aS'HLA-C07:06'
p7997
aS'HLA-C07:07'
p7998
aS'HLA-C07:08'
p7999
aS'HLA-C07:09'
p8000
aS'HLA-C07:10'
p8001
aS'HLA-C07:11'
p8002
aS'HLA-C07:12'
p8003
aS'HLA-C07:13'
p8004
aS'HLA-C07:14'
p8005
aS'HLA-C07:15'
p8006
aS'HLA-C07:16'
p8007
aS'HLA-C07:17'
p8008
aS'HLA-C07:18'
p8009
aS'HLA-C07:19'
p8010
aS'HLA-C07:20'
p8011
aS'HLA-C07:21'
p8012
aS'HLA-C07:22'
p8013
aS'HLA-C07:23'
p8014
aS'HLA-C07:24'
p8015
aS'HLA-C07:25'
p8016
aS'HLA-C07:26'
p8017
aS'HLA-C07:27'
p8018
aS'HLA-C07:28'
p8019
aS'HLA-C07:29'
p8020
aS'HLA-C07:30'
p8021
aS'HLA-C07:31'
p8022
aS'HLA-C07:35'
p8023
aS'HLA-C07:36'
p8024
aS'HLA-C07:37'
p8025
aS'HLA-C07:38'
p8026
aS'HLA-C07:39'
p8027
aS'HLA-C07:40'
p8028
aS'HLA-C07:41'
p8029
aS'HLA-C07:42'
p8030
aS'HLA-C07:43'
p8031
aS'HLA-C07:44'
p8032
aS'HLA-C07:45'
p8033
aS'HLA-C07:46'
p8034
aS'HLA-C07:47'
p8035
aS'HLA-C07:48'
p8036
aS'HLA-C07:49'
p8037
aS'HLA-C07:50'
p8038
aS'HLA-C07:51'
p8039
aS'HLA-C07:52'
p8040
aS'HLA-C07:53'
p8041
aS'HLA-C07:54'
p8042
aS'HLA-C07:56'
p8043
aS'HLA-C07:57'
p8044
aS'HLA-C07:58'
p8045
aS'HLA-C07:59'
p8046
aS'HLA-C07:60'
p8047
aS'HLA-C07:62'
p8048
aS'HLA-C07:63'
p8049
aS'HLA-C07:64'
p8050
aS'HLA-C07:65'
p8051
aS'HLA-C07:66'
p8052
aS'HLA-C07:67'
p8053
aS'HLA-C07:68'
p8054
aS'HLA-C07:69'
p8055
aS'HLA-C07:70'
p8056
aS'HLA-C07:71'
p8057
aS'HLA-C07:72'
p8058
aS'HLA-C07:73'
p8059
aS'HLA-C07:74'
p8060
aS'HLA-C07:75'
p8061
aS'HLA-C07:76'
p8062
aS'HLA-C07:77'
p8063
aS'HLA-C07:78'
p8064
aS'HLA-C07:79'
p8065
aS'HLA-C07:80'
p8066
aS'HLA-C07:81'
p8067
aS'HLA-C07:82'
p8068
aS'HLA-C07:83'
p8069
aS'HLA-C07:84'
p8070
aS'HLA-C07:85'
p8071
aS'HLA-C07:86'
p8072
aS'HLA-C07:87'
p8073
aS'HLA-C07:88'
p8074
aS'HLA-C07:89'
p8075
aS'HLA-C07:90'
p8076
aS'HLA-C07:91'
p8077
aS'HLA-C07:92'
p8078
aS'HLA-C07:93'
p8079
aS'HLA-C07:94'
p8080
aS'HLA-C07:95'
p8081
aS'HLA-C07:96'
p8082
aS'HLA-C07:97'
p8083
aS'HLA-C07:99'
p8084
aS'HLA-C07:100'
p8085
aS'HLA-C07:101'
p8086
aS'HLA-C07:102'
p8087
aS'HLA-C07:103'
p8088
aS'HLA-C07:105'
p8089
aS'HLA-C07:106'
p8090
aS'HLA-C07:107'
p8091
aS'HLA-C07:108'
p8092
aS'HLA-C07:109'
p8093
aS'HLA-C07:110'
p8094
aS'HLA-C07:111'
p8095
aS'HLA-C07:112'
p8096
aS'HLA-C07:113'
p8097
aS'HLA-C07:114'
p8098
aS'HLA-C07:115'
p8099
aS'HLA-C07:116'
p8100
aS'HLA-C07:117'
p8101
aS'HLA-C07:118'
p8102
aS'HLA-C07:119'
p8103
aS'HLA-C07:120'
p8104
aS'HLA-C07:122'
p8105
aS'HLA-C07:123'
p8106
aS'HLA-C07:124'
p8107
aS'HLA-C07:125'
p8108
aS'HLA-C07:126'
p8109
aS'HLA-C07:127'
p8110
aS'HLA-C07:128'
p8111
aS'HLA-C07:129'
p8112
aS'HLA-C07:130'
p8113
aS'HLA-C07:131'
p8114
aS'HLA-C07:132'
p8115
aS'HLA-C07:133'
p8116
aS'HLA-C07:134'
p8117
aS'HLA-C07:135'
p8118
aS'HLA-C07:136'
p8119
aS'HLA-C07:137'
p8120
aS'HLA-C07:138'
p8121
aS'HLA-C07:139'
p8122
aS'HLA-C07:140'
p8123
aS'HLA-C07:141'
p8124
aS'HLA-C07:142'
p8125
aS'HLA-C07:143'
p8126
aS'HLA-C07:144'
p8127
aS'HLA-C07:145'
p8128
aS'HLA-C07:146'
p8129
aS'HLA-C07:147'
p8130
aS'HLA-C07:148'
p8131
aS'HLA-C07:149'
p8132
aS'HLA-C08:01'
p8133
aS'HLA-C08:02'
p8134
aS'HLA-C08:03'
p8135
aS'HLA-C08:04'
p8136
aS'HLA-C08:05'
p8137
aS'HLA-C08:06'
p8138
aS'HLA-C08:07'
p8139
aS'HLA-C08:08'
p8140
aS'HLA-C08:09'
p8141
aS'HLA-C08:10'
p8142
aS'HLA-C08:11'
p8143
aS'HLA-C08:12'
p8144
aS'HLA-C08:13'
p8145
aS'HLA-C08:14'
p8146
aS'HLA-C08:15'
p8147
aS'HLA-C08:16'
p8148
aS'HLA-C08:17'
p8149
aS'HLA-C08:18'
p8150
aS'HLA-C08:19'
p8151
aS'HLA-C08:20'
p8152
aS'HLA-C08:21'
p8153
aS'HLA-C08:22'
p8154
aS'HLA-C08:23'
p8155
aS'HLA-C08:24'
p8156
aS'HLA-C08:25'
p8157
aS'HLA-C08:27'
p8158
aS'HLA-C08:28'
p8159
aS'HLA-C08:29'
p8160
aS'HLA-C08:30'
p8161
aS'HLA-C08:31'
p8162
aS'HLA-C08:32'
p8163
aS'HLA-C08:33'
p8164
aS'HLA-C08:34'
p8165
aS'HLA-C08:35'
p8166
aS'HLA-C12:02'
p8167
aS'HLA-C12:03'
p8168
aS'HLA-C12:04'
p8169
aS'HLA-C12:05'
p8170
aS'HLA-C12:06'
p8171
aS'HLA-C12:07'
p8172
aS'HLA-C12:08'
p8173
aS'HLA-C12:09'
p8174
aS'HLA-C12:10'
p8175
aS'HLA-C12:11'
p8176
aS'HLA-C12:12'
p8177
aS'HLA-C12:13'
p8178
aS'HLA-C12:14'
p8179
aS'HLA-C12:15'
p8180
aS'HLA-C12:16'
p8181
aS'HLA-C12:17'
p8182
aS'HLA-C12:18'
p8183
aS'HLA-C12:19'
p8184
aS'HLA-C12:20'
p8185
aS'HLA-C12:21'
p8186
aS'HLA-C12:22'
p8187
aS'HLA-C12:23'
p8188
aS'HLA-C12:24'
p8189
aS'HLA-C12:25'
p8190
aS'HLA-C12:26'
p8191
aS'HLA-C12:27'
p8192
aS'HLA-C12:28'
p8193
aS'HLA-C12:29'
p8194
aS'HLA-C12:30'
p8195
aS'HLA-C12:31'
p8196
aS'HLA-C12:32'
p8197
aS'HLA-C12:33'
p8198
aS'HLA-C12:34'
p8199
aS'HLA-C12:35'
p8200
aS'HLA-C12:36'
p8201
aS'HLA-C12:37'
p8202
aS'HLA-C12:38'
p8203
aS'HLA-C12:40'
p8204
aS'HLA-C12:41'
p8205
aS'HLA-C12:43'
p8206
aS'HLA-C12:44'
p8207
aS'HLA-C14:02'
p8208
aS'HLA-C14:03'
p8209
aS'HLA-C14:04'
p8210
aS'HLA-C14:05'
p8211
aS'HLA-C14:06'
p8212
aS'HLA-C14:08'
p8213
aS'HLA-C14:09'
p8214
aS'HLA-C14:10'
p8215
aS'HLA-C14:11'
p8216
aS'HLA-C14:12'
p8217
aS'HLA-C14:13'
p8218
aS'HLA-C14:14'
p8219
aS'HLA-C14:15'
p8220
aS'HLA-C14:16'
p8221
aS'HLA-C14:17'
p8222
aS'HLA-C14:18'
p8223
aS'HLA-C14:19'
p8224
aS'HLA-C14:20'
p8225
aS'HLA-C15:02'
p8226
aS'HLA-C15:03'
p8227
aS'HLA-C15:04'
p8228
aS'HLA-C15:05'
p8229
aS'HLA-C15:06'
p8230
aS'HLA-C15:07'
p8231
aS'HLA-C15:08'
p8232
aS'HLA-C15:09'
p8233
aS'HLA-C15:10'
p8234
aS'HLA-C15:11'
p8235
aS'HLA-C15:12'
p8236
aS'HLA-C15:13'
p8237
aS'HLA-C15:15'
p8238
aS'HLA-C15:16'
p8239
aS'HLA-C15:17'
p8240
aS'HLA-C15:18'
p8241
aS'HLA-C15:19'
p8242
aS'HLA-C15:20'
p8243
aS'HLA-C15:21'
p8244
aS'HLA-C15:22'
p8245
aS'HLA-C15:23'
p8246
aS'HLA-C15:24'
p8247
aS'HLA-C15:25'
p8248
aS'HLA-C15:26'
p8249
aS'HLA-C15:27'
p8250
aS'HLA-C15:28'
p8251
aS'HLA-C15:29'
p8252
aS'HLA-C15:30'
p8253
aS'HLA-C15:31'
p8254
aS'HLA-C15:33'
p8255
aS'HLA-C15:34'
p8256
aS'HLA-C15:35'
p8257
aS'HLA-C16:01'
p8258
aS'HLA-C16:02'
p8259
aS'HLA-C16:04'
p8260
aS'HLA-C16:06'
p8261
aS'HLA-C16:07'
p8262
aS'HLA-C16:08'
p8263
aS'HLA-C16:09'
p8264
aS'HLA-C16:10'
p8265
aS'HLA-C16:11'
p8266
aS'HLA-C16:12'
p8267
aS'HLA-C16:13'
p8268
aS'HLA-C16:14'
p8269
aS'HLA-C16:15'
p8270
aS'HLA-C16:17'
p8271
aS'HLA-C16:18'
p8272
aS'HLA-C16:19'
p8273
aS'HLA-C16:20'
p8274
aS'HLA-C16:21'
p8275
aS'HLA-C16:22'
p8276
aS'HLA-C16:23'
p8277
aS'HLA-C16:24'
p8278
aS'HLA-C16:25'
p8279
aS'HLA-C16:26'
p8280
aS'HLA-C17:01'
p8281
aS'HLA-C17:02'
p8282
aS'HLA-C17:03'
p8283
aS'HLA-C17:04'
p8284
aS'HLA-C17:05'
p8285
aS'HLA-C17:06'
p8286
aS'HLA-C17:07'
p8287
aS'HLA-C18:01'
p8288
aS'HLA-C18:02'
p8289
aS'HLA-C18:03'
p8290
aS'Mamu-A1:00101'
p8291
aS'Mamu-A1:00102'
p8292
aS'Mamu-A1:00103'
p8293
aS'Mamu-A1:00104'
p8294
aS'Mamu-A1:00105'
p8295
aS'Mamu-A1:00201'
p8296
aS'Mamu-A1:00301'
p8297
aS'Mamu-A1:00302'
p8298
aS'Mamu-A1:00303'
p8299
aS'Mamu-A1:00304'
p8300
aS'Mamu-A1:00305'
p8301
aS'Mamu-A1:00306'
p8302
aS'Mamu-A1:00307'
p8303
aS'Mamu-A1:00308'
p8304
aS'Mamu-A1:00310'
p8305
aS'Mamu-A1:00401'
p8306
aS'Mamu-A1:00402'
p8307
aS'Mamu-A1:00403'
p8308
aS'Mamu-A1:00601'
p8309
aS'Mamu-A1:00602'
p8310
aS'Mamu-A1:00701'
p8311
aS'Mamu-A1:00702'
p8312
aS'Mamu-A1:00703'
p8313
aS'Mamu-A1:00704'
p8314
aS'Mamu-A1:00705'
p8315
aS'Mamu-A1:00801'
p8316
aS'Mamu-A1:01001'
p8317
aS'Mamu-A1:01002'
p8318
aS'Mamu-A1:01101'
p8319
aS'Mamu-A1:01102'
p8320
aS'Mamu-A1:01103'
p8321
aS'Mamu-A1:01104'
p8322
aS'Mamu-A1:01201'
p8323
aS'Mamu-A1:01601'
p8324
aS'Mamu-A1:01801'
p8325
aS'Mamu-A1:01802'
p8326
aS'Mamu-A1:01803'
p8327
aS'Mamu-A1:01804'
p8328
aS'Mamu-A1:01805'
p8329
aS'Mamu-A1:01806'
p8330
aS'Mamu-A1:01807'
p8331
aS'Mamu-A1:01808'
p8332
aS'Mamu-A1:01901'
p8333
aS'Mamu-A1:01902'
p8334
aS'Mamu-A1:01903'
p8335
aS'Mamu-A1:01904'
p8336
aS'Mamu-A1:01905'
p8337
aS'Mamu-A1:01906'
p8338
aS'Mamu-A1:01907'
p8339
aS'Mamu-A1:02201'
p8340
aS'Mamu-A1:02202'
p8341
aS'Mamu-A1:02203'
p8342
aS'Mamu-A1:02301'
p8343
aS'Mamu-A1:02302'
p8344
aS'Mamu-A1:02501'
p8345
aS'Mamu-A1:02502'
p8346
aS'Mamu-A1:02601'
p8347
aS'Mamu-A1:02602'
p8348
aS'Mamu-A1:02603'
p8349
aS'Mamu-A1:02801'
p8350
aS'Mamu-A1:02802'
p8351
aS'Mamu-A1:02803'
p8352
aS'Mamu-A1:02804'
p8353
aS'Mamu-A1:02805'
p8354
aS'Mamu-A1:02806'
p8355
aS'Mamu-A1:03201'
p8356
aS'Mamu-A1:03202'
p8357
aS'Mamu-A1:03203'
p8358
aS'Mamu-A1:03301'
p8359
aS'Mamu-A1:04001'
p8360
aS'Mamu-A1:04002'
p8361
aS'Mamu-A1:04003'
p8362
aS'Mamu-A1:04101'
p8363
aS'Mamu-A1:04102'
p8364
aS'Mamu-A1:04201'
p8365
aS'Mamu-A1:04301'
p8366
aS'Mamu-A1:04501'
p8367
aS'Mamu-A1:04801'
p8368
aS'Mamu-A1:04901'
p8369
aS'Mamu-A1:04902'
p8370
aS'Mamu-A1:04903'
p8371
aS'Mamu-A1:04904'
p8372
aS'Mamu-A1:05001'
p8373
aS'Mamu-A1:05101'
p8374
aS'Mamu-A1:05201'
p8375
aS'Mamu-A1:05301'
p8376
aS'Mamu-A1:05302'
p8377
aS'Mamu-A1:05401'
p8378
aS'Mamu-A1:05402'
p8379
aS'Mamu-A1:05501'
p8380
aS'Mamu-A1:05601'
p8381
aS'Mamu-A1:05602'
p8382
aS'Mamu-A1:05603'
p8383
aS'Mamu-A1:05701'
p8384
aS'Mamu-A1:05702'
p8385
aS'Mamu-A1:05901'
p8386
aS'Mamu-A1:06001'
p8387
aS'Mamu-A1:06101'
p8388
aS'Mamu-A1:06301'
p8389
aS'Mamu-A1:06501'
p8390
aS'Mamu-A1:06601'
p8391
aS'Mamu-A1:07301'
p8392
aS'Mamu-A1:07401'
p8393
aS'Mamu-A1:07402'
p8394
aS'Mamu-A1:07403'
p8395
aS'Mamu-A1:08101'
p8396
aS'Mamu-A1:08501'
p8397
aS'Mamu-A1:09101'
p8398
aS'Mamu-A1:09201'
p8399
aS'Mamu-A1:10501'
p8400
aS'Mamu-A1:10502'
p8401
aS'Mamu-A1:10503'
p8402
aS'Mamu-A1:10504'
p8403
aS'Mamu-A1:10601'
p8404
aS'Mamu-A1:10701'
p8405
aS'Mamu-A1:10801'
p8406
aS'Mamu-A1:10901'
p8407
aS'Mamu-A1:11001'
p8408
aS'Mamu-A1:11101'
p8409
aS'Mamu-A1:11201'
p8410
aS'Mamu-A1:11301'
p8411
aS'Mamu-A2:0101'
p8412
aS'Mamu-A2:0102'
p8413
aS'Mamu-A2:0103'
p8414
aS'Mamu-A2:0501'
p8415
aS'Mamu-A2:05020'
p8416
aS'Mamu-A2:05030'
p8417
aS'Mamu-A2:05040'
p8418
aS'Mamu-A2:0505'
p8419
aS'Mamu-A2:0506'
p8420
aS'Mamu-A2:0507'
p8421
aS'Mamu-A2:0509'
p8422
aS'Mamu-A2:0510'
p8423
aS'Mamu-A2:0511'
p8424
aS'Mamu-A2:0512'
p8425
aS'Mamu-A2:0513'
p8426
aS'Mamu-A2:0514'
p8427
aS'Mamu-A2:05150'
p8428
aS'Mamu-A2:05160'
p8429
aS'Mamu-A2:0517'
p8430
aS'Mamu-A2:0518'
p8431
aS'Mamu-A2:0519'
p8432
aS'Mamu-A2:0520'
p8433
aS'Mamu-A2:0521'
p8434
aS'Mamu-A2:0522'
p8435
aS'Mamu-A2:0523'
p8436
aS'Mamu-A2:0524'
p8437
aS'Mamu-A2:0525'
p8438
aS'Mamu-A2:0526'
p8439
aS'Mamu-A2:0527'
p8440
aS'Mamu-A2:0528'
p8441
aS'Mamu-A2:0529'
p8442
aS'Mamu-A2:0531'
p8443
aS'Mamu-A2:05320'
p8444
aS'Mamu-A2:0533'
p8445
aS'Mamu-A2:0534'
p8446
aS'Mamu-A2:0535'
p8447
aS'Mamu-A2:0536'
p8448
aS'Mamu-A2:0537'
p8449
aS'Mamu-A2:0538'
p8450
aS'Mamu-A2:0539'
p8451
aS'Mamu-A2:0540'
p8452
aS'Mamu-A2:0541'
p8453
aS'Mamu-A2:0542'
p8454
aS'Mamu-A2:0543'
p8455
aS'Mamu-A2:0544'
p8456
aS'Mamu-A2:0545'
p8457
aS'Mamu-A2:0546'
p8458
aS'Mamu-A2:0547'
p8459
aS'Mamu-A2:2401'
p8460
aS'Mamu-A2:2402'
p8461
aS'Mamu-A2:2403'
p8462
aS'Mamu-A3:1301'
p8463
aS'Mamu-A3:1302'
p8464
aS'Mamu-A3:1303'
p8465
aS'Mamu-A3:1304'
p8466
aS'Mamu-A3:1305'
p8467
aS'Mamu-A3:1306'
p8468
aS'Mamu-A3:1307'
p8469
aS'Mamu-A3:1308'
p8470
aS'Mamu-A3:1309'
p8471
aS'Mamu-A3:1310'
p8472
aS'Mamu-A3:1311'
p8473
aS'Mamu-A3:1312'
p8474
aS'Mamu-A3:1313'
p8475
aS'Mamu-A4:0101'
p8476
aS'Mamu-A4:01020'
p8477
aS'Mamu-A4:0103'
p8478
aS'Mamu-A4:0202'
p8479
aS'Mamu-A4:0203'
p8480
aS'Mamu-A4:0205'
p8481
aS'Mamu-A4:0301'
p8482
aS'Mamu-A4:0302'
p8483
aS'Mamu-A4:1402'
p8484
aS'Mamu-A4:14030'
p8485
aS'Mamu-A4:1404'
p8486
aS'Mamu-A4:1405'
p8487
aS'Mamu-A4:1406'
p8488
aS'Mamu-A4:1407'
p8489
aS'Mamu-A4:1408'
p8490
aS'Mamu-A4:1409'
p8491
aS'Mamu-A5:30010'
p8492
aS'Mamu-A5:3002'
p8493
aS'Mamu-A5:3003'
p8494
aS'Mamu-A5:3004'
p8495
aS'Mamu-A5:3005'
p8496
aS'Mamu-A5:3006'
p8497
aS'Mamu-A6:0101'
p8498
aS'Mamu-A6:0102'
p8499
aS'Mamu-A6:0103'
p8500
aS'Mamu-A6:0104'
p8501
aS'Mamu-A6:0105'
p8502
aS'Mamu-A7:0101'
p8503
aS'Mamu-A7:0102'
p8504
aS'Mamu-A7:0103'
p8505
aS'Mamu-A7:0201'
p8506
aS'Mamu-AG:01'
p8507
aS'Mamu-AG:02011'
p8508
aS'Mamu-AG:02012'
p8509
aS'Mamu-AG:0202'
p8510
aS'Mamu-AG:03011'
p8511
aS'Mamu-AG:0302'
p8512
aS'Mamu-B:00101'
p8513
aS'Mamu-B:00102'
p8514
aS'Mamu-B:00201'
p8515
aS'Mamu-B:00202'
p8516
aS'Mamu-B:00301'
p8517
aS'Mamu-B:00302'
p8518
aS'Mamu-B:00401'
p8519
aS'Mamu-B:00501'
p8520
aS'Mamu-B:00502'
p8521
aS'Mamu-B:00601'
p8522
aS'Mamu-B:00602'
p8523
aS'Mamu-B:00701'
p8524
aS'Mamu-B:00702'
p8525
aS'Mamu-B:00703'
p8526
aS'Mamu-B:00704'
p8527
aS'Mamu-B:00801'
p8528
aS'Mamu-B:01001'
p8529
aS'Mamu-B:01101'
p8530
aS'Mamu-B:01201'
p8531
aS'Mamu-B:01301'
p8532
aS'Mamu-B:01401'
p8533
aS'Mamu-B:01501'
p8534
aS'Mamu-B:01502'
p8535
aS'Mamu-B:01601'
p8536
aS'Mamu-B:01701'
p8537
aS'Mamu-B:01702'
p8538
aS'Mamu-B:01703'
p8539
aS'Mamu-B:01801'
p8540
aS'Mamu-B:01901'
p8541
aS'Mamu-B:01902'
p8542
aS'Mamu-B:01903'
p8543
aS'Mamu-B:02001'
p8544
aS'Mamu-B:02101'
p8545
aS'Mamu-B:02102'
p8546
aS'Mamu-B:02103'
p8547
aS'Mamu-B:02201'
p8548
aS'Mamu-B:02301'
p8549
aS'Mamu-B:02401'
p8550
aS'Mamu-B:02501'
p8551
aS'Mamu-B:02601'
p8552
aS'Mamu-B:02602'
p8553
aS'Mamu-B:02701'
p8554
aS'Mamu-B:02702'
p8555
aS'Mamu-B:02703'
p8556
aS'Mamu-B:02801'
p8557
aS'Mamu-B:02802'
p8558
aS'Mamu-B:02803'
p8559
aS'Mamu-B:02901'
p8560
aS'Mamu-B:02902'
p8561
aS'Mamu-B:03001'
p8562
aS'Mamu-B:03002'
p8563
aS'Mamu-B:03003'
p8564
aS'Mamu-B:03004'
p8565
aS'Mamu-B:03005'
p8566
aS'Mamu-B:03101'
p8567
aS'Mamu-B:03102'
p8568
aS'Mamu-B:03103'
p8569
aS'Mamu-B:03201'
p8570
aS'Mamu-B:03301'
p8571
aS'Mamu-B:03401'
p8572
aS'Mamu-B:03501'
p8573
aS'Mamu-B:03601'
p8574
aS'Mamu-B:03602'
p8575
aS'Mamu-B:03701'
p8576
aS'Mamu-B:03801'
p8577
aS'Mamu-B:03802'
p8578
aS'Mamu-B:03901'
p8579
aS'Mamu-B:04001'
p8580
aS'Mamu-B:04002'
p8581
aS'Mamu-B:04101'
p8582
aS'Mamu-B:04201'
p8583
aS'Mamu-B:04301'
p8584
aS'Mamu-B:04401'
p8585
aS'Mamu-B:04402'
p8586
aS'Mamu-B:04403'
p8587
aS'Mamu-B:04404'
p8588
aS'Mamu-B:04405'
p8589
aS'Mamu-B:04501'
p8590
aS'Mamu-B:04502'
p8591
aS'Mamu-B:04503'
p8592
aS'Mamu-B:04504'
p8593
aS'Mamu-B:04601'
p8594
aS'Mamu-B:04602'
p8595
aS'Mamu-B:04603'
p8596
aS'Mamu-B:04604'
p8597
aS'Mamu-B:04605'
p8598
aS'Mamu-B:04607'
p8599
aS'Mamu-B:04608'
p8600
aS'Mamu-B:04609'
p8601
aS'Mamu-B:04610'
p8602
aS'Mamu-B:04611'
p8603
aS'Mamu-B:04612'
p8604
aS'Mamu-B:04613'
p8605
aS'Mamu-B:04614'
p8606
aS'Mamu-B:04615'
p8607
aS'Mamu-B:04616'
p8608
aS'Mamu-B:04617'
p8609
aS'Mamu-B:04701'
p8610
aS'Mamu-B:04702'
p8611
aS'Mamu-B:04703'
p8612
aS'Mamu-B:04704'
p8613
aS'Mamu-B:04705'
p8614
aS'Mamu-B:04801'
p8615
aS'Mamu-B:04802'
p8616
aS'Mamu-B:04901'
p8617
aS'Mamu-B:05002'
p8618
aS'Mamu-B:05101'
p8619
aS'Mamu-B:05102'
p8620
aS'Mamu-B:05103'
p8621
aS'Mamu-B:05104'
p8622
aS'Mamu-B:05105'
p8623
aS'Mamu-B:05201'
p8624
aS'Mamu-B:05301'
p8625
aS'Mamu-B:05302'
p8626
aS'Mamu-B:05401'
p8627
aS'Mamu-B:05501'
p8628
aS'Mamu-B:05601'
p8629
aS'Mamu-B:05602'
p8630
aS'Mamu-B:05701'
p8631
aS'Mamu-B:05702'
p8632
aS'Mamu-B:05802'
p8633
aS'Mamu-B:05901'
p8634
aS'Mamu-B:06001'
p8635
aS'Mamu-B:06002'
p8636
aS'Mamu-B:06003'
p8637
aS'Mamu-B:06101'
p8638
aS'Mamu-B:06102'
p8639
aS'Mamu-B:06103'
p8640
aS'Mamu-B:06301'
p8641
aS'Mamu-B:06302'
p8642
aS'Mamu-B:06401'
p8643
aS'Mamu-B:06402'
p8644
aS'Mamu-B:06501'
p8645
aS'Mamu-B:06502'
p8646
aS'Mamu-B:06503'
p8647
aS'Mamu-B:06601'
p8648
aS'Mamu-B:06701'
p8649
aS'Mamu-B:06702'
p8650
aS'Mamu-B:06801'
p8651
aS'Mamu-B:06802'
p8652
aS'Mamu-B:06803'
p8653
aS'Mamu-B:06804'
p8654
aS'Mamu-B:06805'
p8655
aS'Mamu-B:06901'
p8656
aS'Mamu-B:06902'
p8657
aS'Mamu-B:06903'
p8658
aS'Mamu-B:06904'
p8659
aS'Mamu-B:07001'
p8660
aS'Mamu-B:07002'
p8661
aS'Mamu-B:07101'
p8662
aS'Mamu-B:07201'
p8663
aS'Mamu-B:07202'
p8664
aS'Mamu-B:07301'
p8665
aS'Mamu-B:07401'
p8666
aS'Mamu-B:07402'
p8667
aS'Mamu-B:07501'
p8668
aS'Mamu-B:07502'
p8669
aS'Mamu-B:07601'
p8670
aS'Mamu-B:07602'
p8671
aS'Mamu-B:07701'
p8672
aS'Mamu-B:07702'
p8673
aS'Mamu-B:07801'
p8674
aS'Mamu-B:07901'
p8675
aS'Mamu-B:07902'
p8676
aS'Mamu-B:07903'
p8677
aS'Mamu-B:08001'
p8678
aS'Mamu-B:08101'
p8679
aS'Mamu-B:08102'
p8680
aS'Mamu-B:08201'
p8681
aS'Mamu-B:08202'
p8682
aS'Mamu-B:08301'
p8683
aS'Mamu-B:08401'
p8684
aS'Mamu-B:08501'
p8685
aS'Mamu-B:08502'
p8686
aS'Mamu-B:08601'
p8687
aS'Mamu-B:08602'
p8688
aS'Mamu-B:08603'
p8689
aS'Mamu-B:08701'
p8690
aS'Mamu-B:08801'
p8691
aS'Mamu-B:08901'
p8692
aS'Mamu-B:09001'
p8693
aS'Mamu-B:09101'
p8694
aS'Mamu-B:09102'
p8695
aS'Mamu-B:09201'
p8696
aS'Mamu-B:09301'
p8697
aS'Mamu-B:09401'
p8698
aS'Mamu-B:09501'
p8699
aS'Mamu-B:09601'
p8700
aS'Mamu-B:09701'
p8701
aS'Mamu-B:09801'
p8702
aS'Mamu-B:09901'
p8703
aS'Mamu-B:10001'
p8704
aS'Mamu-B:10101'
p8705
aS'Patr-A0101'
p8706
aS'Patr-A0201'
p8707
aS'Patr-A0301'
p8708
aS'Patr-A0302'
p8709
aS'Patr-A0401'
p8710
aS'Patr-A0402'
p8711
aS'Patr-A0404'
p8712
aS'Patr-A0501'
p8713
aS'Patr-A0601'
p8714
aS'Patr-A0602'
p8715
aS'Patr-A0701'
p8716
aS'Patr-A0801'
p8717
aS'Patr-A0802'
p8718
aS'Patr-A0803'
p8719
aS'Patr-A0901'
p8720
aS'Patr-A0902'
p8721
aS'Patr-A1001'
p8722
aS'Patr-A1101'
p8723
aS'Patr-A1201'
p8724
aS'Patr-A1301'
p8725
aS'Patr-A1401'
p8726
aS'Patr-A1501'
p8727
aS'Patr-A1502'
p8728
aS'Patr-A1601'
p8729
aS'Patr-A1701'
p8730
aS'Patr-A1702'
p8731
aS'Patr-A1703'
p8732
aS'Patr-A1801'
p8733
aS'Patr-A2301'
p8734
aS'Patr-A2401'
p8735
aS'Patr-B0101'
p8736
aS'Patr-B0102'
p8737
aS'Patr-B0201'
p8738
aS'Patr-B0203'
p8739
aS'Patr-B0301'
p8740
aS'Patr-B0302'
p8741
aS'Patr-B0401'
p8742
aS'Patr-B0402'
p8743
aS'Patr-B0501'
p8744
aS'Patr-B0502'
p8745
aS'Patr-B0601'
p8746
aS'Patr-B0701'
p8747
aS'Patr-B0702'
p8748
aS'Patr-B0801'
p8749
aS'Patr-B0802'
p8750
aS'Patr-B0901'
p8751
aS'Patr-B1001'
p8752
aS'Patr-B1101'
p8753
aS'Patr-B1102'
p8754
aS'Patr-B1202'
p8755
aS'Patr-B1301'
p8756
aS'Patr-B1401'
p8757
aS'Patr-B1601'
p8758
aS'Patr-B1602'
p8759
aS'Patr-B1701'
p8760
aS'Patr-B1702'
p8761
aS'Patr-B1703'
p8762
aS'Patr-B1801'
p8763
aS'Patr-B1901'
p8764
aS'Patr-B2001'
p8765
aS'Patr-B2101'
p8766
aS'Patr-B2201'
p8767
aS'Patr-B2202'
p8768
aS'Patr-B2301'
p8769
aS'Patr-B2302'
p8770
aS'Patr-B2303'
p8771
aS'Patr-B2401'
p8772
aS'Patr-B2402'
p8773
aS'Patr-B2501'
p8774
aS'Patr-B2601'
p8775
aS'Patr-B2701'
p8776
aS'Patr-B2801'
p8777
aS'Patr-B2901'
p8778
aS'Patr-B3001'
p8779
aS'Patr-B3501'
p8780
aS'Patr-B3601'
p8781
aS'Patr-B3701'
p8782
aS'Patr-C0201'
p8783
aS'Patr-C0202'
p8784
aS'Patr-C0203'
p8785
aS'Patr-C0204'
p8786
aS'Patr-C0205'
p8787
aS'Patr-C0206'
p8788
aS'Patr-C0301'
p8789
aS'Patr-C0302'
p8790
aS'Patr-C0303'
p8791
aS'Patr-C0304'
p8792
aS'Patr-C0401'
p8793
aS'Patr-C0501'
p8794
aS'Patr-C0502'
p8795
aS'Patr-C0601'
p8796
aS'Patr-C0701'
p8797
aS'Patr-C0801'
p8798
aS'Patr-C0901'
p8799
aS'Patr-C0902'
p8800
aS'Patr-C0903'
p8801
aS'Patr-C0904'
p8802
aS'Patr-C0905'
p8803
aS'Patr-C1001'
p8804
aS'Patr-C1101'
p8805
aS'Patr-C1201'
p8806
aS'Patr-C1301'
p8807
aS'Patr-C1302'
p8808
aS'Patr-C1501'
p8809
aS'Patr-C1601'
p8810
aS'SLA-1:0101'
p8811
aS'SLA-1:0201'
p8812
aS'SLA-1:0202'
p8813
aS'SLA-1:0401'
p8814
aS'SLA-1:0501'
p8815
aS'SLA-1:0601'
p8816
aS'SLA-1:0701'
p8817
aS'SLA-1:0702'
p8818
aS'SLA-1:0801'
p8819
aS'SLA-1:1101'
p8820
aS'SLA-1:1201'
p8821
aS'SLA-1:1301'
p8822
aS'SLA-2:0101'
p8823
aS'SLA-2:0102'
p8824
aS'SLA-2:0201'
p8825
aS'SLA-2:0202'
p8826
aS'SLA-2:0301'
p8827
aS'SLA-2:0302'
p8828
aS'SLA-2:0401'
p8829
aS'SLA-2:0402'
p8830
aS'SLA-2:0501'
p8831
aS'SLA-2:0502'
p8832
aS'SLA-2:0601'
p8833
aS'SLA-2:0701'
p8834
aS'SLA-2:1001'
p8835
aS'SLA-2:1002'
p8836
aS'SLA-2:1101'
p8837
aS'SLA-2:1201'
p8838
aS'SLA-3:0101'
p8839
aS'SLA-3:0301'
p8840
aS'SLA-3:0302'
p8841
aS'SLA-3:0303'
p8842
aS'SLA-3:0304'
p8843
aS'SLA-3:0401'
p8844
aS'SLA-3:0501'
p8845
aS'SLA-3:0502'
p8846
aS'SLA-3:0503'
p8847
aS'SLA-3:0601'
p8848
aS'SLA-3:0602'
p8849
aS'SLA-3:0701'
p8850
aS'SLA-6:0101'
p8851
aS'SLA-6:0102'
p8852
aS'SLA-6:0103'
p8853
aS'SLA-6:0104'
p8854
aS'SLA-6:0105'
p8855
aS'SLA-1-CHANGDA'
p8856
aS'SLA-1-HB01'
p8857
aS'SLA-1-HB02'
p8858
aS'SLA-1-HB03'
p8859
aS'SLA-1-HB04'
p8860
aS'SLA-1-LWH'
p8861
aS'SLA-1-TPK'
p8862
aS'SLA-1-YC'
p8863
aS'SLA-1-YDL01'
p8864
aS'SLA-1-YTH'
p8865
aS'SLA-1:es11'
p8866
aS'SLA-2-YDL02'
p8867
aS'SLA-2:CDY.AA'
p8868
aS'SLA-2:HB01'
p8869
aS'SLA-2:LWH.AA'
p8870
aS'SLA-2:TPK.AA'
p8871
aS'SLA-2:YC.AA'
p8872
aS'SLA-2:YDL.AA'
p8873
aS'SLA-2:YDY.AA'
p8874
aS'SLA-2:YTH.AA'
p8875
aS'SLA-2:es22'
p8876
aS'SLA-3-CDY'
p8877
aS'SLA-3-HB01'
p8878
aS'SLA-3-LWH'
p8879
aS'SLA-3-TPK'
p8880
aS'SLA-3-YC'
p8881
aS'SLA-3-YDL'
p8882
aS'SLA-3-YDY01'
p8883
aS'SLA-3-YDY02'
p8884
aS'SLA-3-YTH'
p8885
aS'H-2-Db'
p8886
aS'H-2-Dd'
p8887
aS'H-2-Kb'
p8888
aS'H-2-Kd'
p8889
aS'H-2-Kk'
p8890
aS'H-2-Ld'
p8891
aS'H-2-Qa2'
p8892
aS'H-2-Qa1'
p8893
aS'Gogo-B0101'
p8894
aS'HLA-G01:01'
p8895
aS'HLA-G01:02'
p8896
aS'HLA-G01:03'
p8897
aS'HLA-G01:04'
p8898
aS'HLA-G01:06'
p8899
aS'HLA-G01:07'
p8900
aS'HLA-G01:08'
p8901
aS'HLA-G01:09'
p8902
aS'HLA-E01:01'
p8903
aS'BoLA-N:00101'
p8904
aS'BoLA-N:00102'
p8905
aS'BoLA-N:00103'
p8906
aS'BoLA-N:00201'
p8907
aS'BoLA-N:00301'
p8908
aS'BoLA-N:00401'
p8909
aS'BoLA-N:00402'
p8910
aS'BoLA-N:00501'
p8911
aS'BoLA-N:00601'
p8912
aS'BoLA-N:00602'
p8913
aS'BoLA-N:00801'
p8914
aS'BoLA-N:00802'
p8915
aS'BoLA-N:00901'
p8916
aS'BoLA-N:00902'
p8917
aS'BoLA-N:01001'
p8918
aS'BoLA-N:01101'
p8919
aS'BoLA-N:01201'
p8920
aS'BoLA-N:01301'
p8921
aS'BoLA-N:01302'
p8922
aS'BoLA-N:01401'
p8923
aS'BoLA-N:01402'
p8924
aS'BoLA-N:01501'
p8925
aS'BoLA-N:01502'
p8926
aS'BoLA-N:01601'
p8927
aS'BoLA-N:01602'
p8928
aS'BoLA-N:01701'
p8929
aS'BoLA-N:01702'
p8930
aS'BoLA-N:01801'
p8931
aS'BoLA-N:01802'
p8932
aS'BoLA-N:01901'
p8933
aS'BoLA-N:02001'
p8934
aS'BoLA-N:02101'
p8935
aS'BoLA-N:02201'
p8936
aS'BoLA-N:02301'
p8937
aS'BoLA-N:02401'
p8938
aS'BoLA-N:02402'
p8939
aS'BoLA-N:02501'
p8940
aS'BoLA-N:02601'
p8941
aS'BoLA-N:02602'
p8942
aS'BoLA-N:02701'
p8943
aS'BoLA-N:02702'
p8944
aS'BoLA-N:02801'
p8945
aS'BoLA-N:02901'
p8946
aS'BoLA-N:03001'
p8947
aS'BoLA-N:03101'
p8948
aS'BoLA-N:03401'
p8949
aS'BoLA-N:03501'
p8950
aS'BoLA-N:03601'
p8951
aS'BoLA-N:03701'
p8952
aS'BoLA-N:03801'
p8953
aS'BoLA-N:03901'
p8954
aS'BoLA-N:04001'
p8955
aS'BoLA-N:04101'
p8956
aS'BoLA-N:04201'
p8957
aS'BoLA-N:04301'
p8958
aS'BoLA-N:04401'
p8959
aS'BoLA-N:04501'
p8960
aS'BoLA-N:04601'
p8961
aS'BoLA-N:04701'
p8962
aS'BoLA-N:04801'
p8963
aS'BoLA-N:04901'
p8964
aS'BoLA-N:05001'
p8965
aS'BoLA-N:05101'
p8966
aS'BoLA-N:05201'
p8967
aS'BoLA-N:05301'
p8968
aS'BoLA-N:05401'
p8969
aS'BoLA-N:05501'
p8970
aS'BoLA-N:05601'
p8971
aS'BoLA-NC1:00101'
p8972
aS'BoLA-NC1:00201'
p8973
aS'BoLA-NC1:00301'
p8974
aS'BoLA-NC1:00401'
p8975
aS'BoLA-NC2:00101'
p8976
aS'BoLA-NC2:00102'
p8977
aS'BoLA-NC3:00101'
p8978
aS'BoLA-NC4:00101'
p8979
aS'BoLA-NC4:00201'
p8980
aS'BoLA-HD6'
p8981
aS'BoLA-JSP.1'
p8982
aS'BoLA-T2c'
p8983
aS'BoLA-T2b'
p8984
aS'BoLA-T2a'
p8985
aS'BoLA-T7'
p8986
aS'BoLA-D18.4'
p8987
aS'BoLA-AW10'
p8988
aS'BoLA-T5'
p8989
aS'BoLA-1:00901'
p8990
aS'BoLA-1:00902'
p8991
aS'BoLA-1:01901'
p8992
aS'BoLA-1:02001'
p8993
aS'BoLA-1:02101'
p8994
aS'BoLA-1:02301'
p8995
aS'BoLA-1:02801'
p8996
aS'BoLA-1:02901'
p8997
aS'BoLA-1:03101'
p8998
aS'BoLA-1:03102'
p8999
aS'BoLA-1:04201'
p9000
aS'BoLA-1:04901'
p9001
aS'BoLA-1:06101'
p9002
aS'BoLA-1:06701'
p9003
aS'BoLA-1:07401'
p9004
aS'BoLA-2:00501'
p9005
aS'BoLA-2:00601'
p9006
aS'BoLA-2:00602'
p9007
aS'BoLA-2:00801'
p9008
aS'BoLA-2:00802'
p9009
aS'BoLA-2:01201'
p9010
aS'BoLA-2:01601'
p9011
aS'BoLA-2:01602'
p9012
aS'BoLA-2:01801'
p9013
aS'BoLA-2:01802'
p9014
aS'BoLA-2:02201'
p9015
aS'BoLA-2:02501'
p9016
aS'BoLA-2:02601'
p9017
aS'BoLA-2:02602'
p9018
aS'BoLA-2:02603'
p9019
aS'BoLA-2:03001'
p9020
aS'BoLA-2:03202'
p9021
aS'BoLA-2:04301'
p9022
aS'BoLA-2:04401'
p9023
aS'BoLA-2:04402'
p9024
aS'BoLA-2:04501'
p9025
aS'BoLA-2:04601'
p9026
aS'BoLA-2:04701'
p9027
aS'BoLA-2:04801'
p9028
aS'BoLA-2:05401'
p9029
aS'BoLA-2:05501'
p9030
aS'BoLA-2:05601'
p9031
aS'BoLA-2:05701'
p9032
aS'BoLA-2:06001'
p9033
aS'BoLA-2:06201'
p9034
aS'BoLA-2:06901'
p9035
aS'BoLA-2:07001'
p9036
aS'BoLA-2:07101'
p9037
aS'BoLA-3:00101'
p9038
aS'BoLA-3:00102'
p9039
aS'BoLA-3:00103'
p9040
aS'BoLA-3:00201'
p9041
aS'BoLA-3:00401'
p9042
aS'BoLA-3:00402'
p9043
aS'BoLA-3:00403'
p9044
aS'BoLA-3:01001'
p9045
aS'BoLA-3:01101'
p9046
aS'BoLA-3:01701'
p9047
aS'BoLA-3:01702'
p9048
aS'BoLA-3:01703'
p9049
aS'BoLA-3:02701'
p9050
aS'BoLA-3:02702'
p9051
aS'BoLA-3:03501'
p9052
aS'BoLA-3:03601'
p9053
aS'BoLA-3:03701'
p9054
aS'BoLA-3:03801'
p9055
aS'BoLA-3:05001'
p9056
aS'BoLA-3:05002'
p9057
aS'BoLA-3:05101'
p9058
aS'BoLA-3:05201'
p9059
aS'BoLA-3:05301'
p9060
aS'BoLA-3:05801'
p9061
aS'BoLA-3:05901'
p9062
aS'BoLA-3:06501'
p9063
aS'BoLA-3:06601'
p9064
aS'BoLA-3:06602'
p9065
aS'BoLA-3:06801'
p9066
aS'BoLA-3:07301'
p9067
aS'BoLA-4:02401'
p9068
aS'BoLA-4:02402'
p9069
aS'BoLA-4:06301'
p9070
aS'BoLA-5:00301'
p9071
aS'BoLA-5:03901'
p9072
aS'BoLA-5:06401'
p9073
aS'BoLA-5:07201'
p9074
aS'BoLA-6:01301'
p9075
aS'BoLA-6:01302'
p9076
aS'BoLA-6:01401'
p9077
aS'BoLA-6:01402'
p9078
aS'BoLA-6:01501'
p9079
aS'BoLA-6:01502'
p9080
aS'BoLA-6:03401'
p9081
aS'BoLA-6:04001'
p9082
aS'BoLA-6:04101'
p9083
as.