(dp0
S'mhcnuggets_mhcI'
p1
(lp2
S'Eqca-N06:02'
p3
aS'HLA-B15:01'
p4
aS'HLA-DQA106:01-DQB104:02'
p5
aS'HLA-B44:05'
p6
aS'HLA-B15:03'
p7
aS'HLA-B44:01'
p8
aS'HLA-B12:01'
p9
aS'HLA-B44:03'
p10
aS'BoLA-641:01'
p11
aS'HLA-C03:03'
p12
aS'HLA-DRB107:01'
p13
aS'BoLA-DRB311:01'
p14
aS'HLA-A11:02'
p15
aS'HLA-C03:04'
p16
aS'HLA-DRA01:01-DRB114:54'
p17
aS'HLA-A69:01'
p18
aS'HLA-DRB115:02'
p19
aS'HLA-DRA01:01-DRB301:01'
p20
aS'Mamu-B52:01'
p21
aS'HLA-B27:06'
p22
aS'HLA-B27:05'
p23
aS'HLA-B27:04'
p24
aS'HLA-B27:03'
p25
aS'HLA-B27:02'
p26
aS'HLA-B27:01'
p27
aS'HLA-B15:17'
p28
aS'HLA-B15:16'
p29
aS'HLA-B15:10'
p30
aS'HLA-B27:09'
p31
aS'HLA-DRA01:01-DRB104:04'
p32
aS'HLA-DRB303:01'
p33
aS'HLA-DRA01:01-DRB115:01'
p34
aS'H-2-IAu'
p35
aS'HLA-DQA104:01-DQB104:02'
p36
aS'HLA-DPA101:03-DPB103:01'
p37
aS'HLA-B42:02'
p38
aS'HLA-DPB105:01'
p39
aS'HLA-DRB302:02'
p40
aS'HLA-DRA01:01-DRB101:01'
p41
aS'HLA-B38:01'
p42
aS'HLA-C15:02'
p43
aS'HLA-DRB109:01'
p44
aS'H-2-IEd'
p45
aS'HLA-DQA102:01-DQB104:02'
p46
aS'H-2-IEb'
p47
aS'HLA-DQA101:02-DQB105:01'
p48
aS'HLA-B40:01'
p49
aS'Patr-B01:01'
p50
aS'HLA-B42:01'
p51
aS'H-2-IEk'
p52
aS'HLA-B40:02'
p53
aS'HLA-B45:06'
p54
aS'Patr-A01:01'
p55
aS'HLA-A26:01'
p56
aS'HLA-C12:03'
p57
aS'H-2-IEr'
p58
aS'H-2-IEp'
p59
aS'HLA-A32:01'
p60
aS'HLA-DRB110:01'
p61
aS'HLA-A26:03'
p62
aS'Patr-B17:01'
p63
aS'HLA-A32:07'
p64
aS'HLA-DRB111:01'
p65
aS'HLA-A26:02'
p66
aS'HLA-DRB116:02'
p67
aS'HLA-DRA01:01-DRB501:01'
p68
aS'HLA-A68:23'
p69
aS'Patr-A04:01'
p70
aS'HLA-BF01:0201'
p71
aS'HLA-DPB109:01'
p72
aS'HLA-B73:01'
p73
aS'HLA-DRB108:01'
p74
aS'BoLA-613:01'
p75
aS'HLA-DQB105:01'
p76
aS'HLA-DQB105:02'
p77
aS'HLA-DQB105:03'
p78
aS'SLA-204:01'
p79
aS'HLA-DQA103:02-DQB103:01'
p80
aS'BoLA-208:01'
p81
aS'HLA-C08:02'
p82
aS'HLA-C08:01'
p83
aS'HLA-BF02:0401'
p84
aS'Mamu-A07:01'
p85
aS'HLA-A11:01'
p86
aS'Mamu-B39:01'
p87
aS'HLA-B18:01'
p88
aS'HLA-DQA102:01-DQB103:01'
p89
aS'HLA-A02:11'
p90
aS'HLA-A02:12'
p91
aS'HLA-A01:01'
p92
aS'HLA-A02:14'
p93
aS'HLA-A02:16'
p94
aS'HLA-A02:17'
p95
aS'HLA-B14:01'
p96
aS'HLA-A02:19'
p97
aS'HLA-A32:15'
p98
aS'HLA-B14:02'
p99
aS'HLA-DRB301:01'
p100
aS'HLA-A74:01'
p101
aS'HLA-A23:01'
p102
aS'HLA-A80:01'
p103
aS'Patr-B09:01'
p104
aS'Gogo-B01:01'
p105
aS'BoLA-DRB312:01'
p106
aS'HLA-DRB113:04'
p107
aS'HLA-DQA103:02-DQB104:01'
p108
aS'HLA-DQB102:01'
p109
aS'HLA-DRB113:03'
p110
aS'HLA-DQB102:02'
p111
aS'HLA-DPA102:01-DPB105:01'
p112
aS'Mamu-B65:02'
p113
aS'HLA-DPA101:03-DPB104:01'
p114
aS'HLA-DPA101:03-DPB104:02'
p115
aS'HLA-DRB101:01'
p116
aS'HLA-B48:01'
p117
aS'HLA-DRB101:03'
p118
aS'HLA-BF02:1201'
p119
aS'HLA-DQA105:01-DQB103:02'
p120
aS'HLA-DQA105:01-DQB103:03'
p121
aS'HLA-DQA105:01-DQB103:01'
p122
aS'HLA-DQA103:01-DQB103:01'
p123
aS'HLA-B45:01'
p124
aS'Mamu-A07:0103'
p125
aS'HLA-B53:01'
p126
aS'HLA-DRB103:05'
p127
aS'HLA-DRA01:01-DRB111:01'
p128
aS'HLA-DRB103:03'
p129
aS'HLA-B57:01'
p130
aS'HLA-DRB103:01'
p131
aS'HLA-B57:03'
p132
aS'HLA-DRB111:04'
p133
aS'HLA-A02:06'
p134
aS'HLA-A02:05'
p135
aS'HLA-A02:04'
p136
aS'HLA-A02:03'
p137
aS'HLA-B57:02'
p138
aS'HLA-A02:01'
p139
aS'HLA-DRB111:03'
p140
aS'HLA-B35:08'
p141
aS'HLA-DQB104:02'
p142
aS'HLA-B54:01'
p143
aS'HLA-A02:09'
p144
aS'HLA-A02:08'
p145
aS'HLA-A02:07'
p146
aS'HLA-A68:01'
p147
aS'HLA-B46:01'
p148
aS'HLA-DPB102:01'
p149
aS'HLA-B35:01'
p150
aS'HLA-DPB114:01'
p151
aS'HLA-B52:01'
p152
aS'HLA-A29:01'
p153
aS'HLA-A29:02'
p154
aS'HLA-DRB104:11'
p155
aS'HLA-B44:02'
p156
aS'H-2-Kk'
p157
aS'HLA-B35:03'
p158
aS'Mamu-DRB104:06'
p159
aS'Mamu-B10:01'
p160
aS'H-2-Kb'
p161
aS'HLA-DRA01:01-DRB104:01'
p162
aS'HLA-A02:02'
p163
aS'HLA-DRA01:01-DRB401:03'
p164
aS'Mamu-A02:01'
p165
aS'HLA-DRB111:02'
p166
aS'HLA-A66:01'
p167
aS'Mamu-B01:01'
p168
aS'HLA-B08:01'
p169
aS'HLA-B08:02'
p170
aS'HLA-B08:03'
p171
aS'HLA-DQB103:02'
p172
aS'HLA-C05:01'
p173
aS'Eqca-101:01'
p174
aS'Mamu-A22:01'
p175
aS'HLA-DPB101:01'
p176
aS'HLA-A24:02'
p177
aS'HLA-A25:01'
p178
aS'HLA-DPA102:02-DPB105:01'
p179
aS'BoLA-A11:01'
p180
aS'HLA-DQA101:01-DQB105:01'
p181
aS'HLA-A33:03'
p182
aS'HLA-DPB104:01'
p183
aS'HLA-DPB104:02'
p184
aS'HLA-B07:02'
p185
aS'H-2-Dd'
p186
aS'HLA-DRB101:02'
p187
aS'Patr-A03:01'
p188
aS'Mamu-B04:01'
p189
aS'HLA-B83:01'
p190
aS'HLA-DRA01:01-DRB303:01'
p191
aS'HLA-DRB104:02'
p192
aS'HLA-DRB104:03'
p193
aS'HLA-DQA103:01-DQB102:01'
p194
aS'HLA-DRB104:01'
p195
aS'HLA-DRB104:06'
p196
aS'HLA-DRB104:07'
p197
aS'HLA-DRB104:04'
p198
aS'HLA-DRB104:05'
p199
aS'HLA-DPA103:01-DPB104:02'
p200
aS'HLA-E01:03'
p201
aS'H-2-IAk'
p202
aS'HLA-A24:03'
p203
aS'HLA-DQA101:03-DQB106:01'
p204
aS'HLA-CW04:01'
p205
aS'HLA-A68:02'
p206
aS'Mamu-DRB01'
p207
aS'HLA-DRB501:01'
p208
aS'HLA-A24:01'
p209
aS'HLA-DQA102:01-DQB103:03'
p210
aS'Mamu-B08:01'
p211
aS'Patr-B24:01'
p212
aS'HLA-DRB114:02'
p213
aS'HLA-DRB114:01'
p214
aS'HLA-DPB111:01'
p215
aS'HLA-B81:01'
p216
aS'HLA-B15:09'
p217
aS'H-2-IAs'
p218
aS'H-2-IAr'
p219
aS'H-2-IAq'
p220
aS'H-2-IAp'
p221
aS'Mamu-A26:01'
p222
aS'Mamu-B87:01'
p223
aS'HLA-DQA102:01-DQB102:01'
p224
aS'HLA-DQA102:01-DQB102:02'
p225
aS'ELA-A01:01'
p226
aS'HLA-DRA01:01-DRB109:01'
p227
aS'Mamu-A01:11'
p228
aS'HLA-BF02:2101'
p229
aS'HLA-B62:01'
p230
aS'HLA-DQA101:04-DQB105:03'
p231
aS'HLA-DRA01:01-DRB103:01'
p232
aS'HLA-A03:01'
p233
aS'HLA-A03:02'
p234
aS'Patr-A06:01'
p235
aS'HLA-DQA101:02-DQB106:02'
p236
aS'SLA-104:01'
p237
aS'HLA-B39:06'
p238
aS'HLA-DRB115:01'
p239
aS'Patr-A06:02'
p240
aS'HLA-DQA101:02-DQB106:04'
p241
aS'HLA-B51:01'
p242
aS'HLA-DRB103:02'
p243
aS'Patr-A05:01'
p244
aS'Mamu-B83:01'
p245
aS'HLA-DQA101:03-DQB106:03'
p246
aS'HLA-DRA01:01-DRB113:01'
p247
aS'H-2-Dk'
p248
aS'BoLA-DRB302:01'
p249
aS'H-2-Db'
p250
aS'HLA-A33:01'
p251
aS'HLA-DRB116:01'
p252
aS'HLA-DQB103:01'
p253
aS'HLA-DRB501:02'
p254
aS'HLA-DQA103:01-DQB104:01'
p255
aS'HLA-DRB113:02'
p256
aS'HLA-DRB108:02'
p257
aS'HLA-DRB108:03'
p258
aS'HLA-RT11:01'
p259
aS'HLA-DRB401:03'
p260
aS'HLA-B58:01'
p261
aS'HLA-B58:02'
p262
aS'BoLA-212:01'
p263
aS'__init__'
p264
aS'HLA-DQA101:02-DQB105:02'
p265
aS'HLA-B55:02'
p266
aS'HLA-B15:42'
p267
aS'HLA-DRB401:01'
p268
aS'HLA-A02:50'
p269
aS'Mamu-A01:01'
p270
aS'Mamu-A01:02'
p271
aS'HLA-B37:01'
p272
aS'Patr-A09:01'
p273
aS'HLA-DPA102:01-DPB101:01'
p274
aS'HLA-A03:19'
p275
aS'Mamu-B66:01'
p276
aS'HLA-B27:20'
p277
aS'HLA-DRB115:03'
p278
aS'HLA-SLA01'
p279
aS'Mamu-B17:04'
p280
aS'HLA-C06:02'
p281
aS'H-2-Ld'
p282
aS'HLA-DPA101:03-DPB102:01'
p283
aS'Mamu-B17:01'
p284
aS'DLA-88508:01'
p285
aS'SLA-302:02'
p286
aS'H-2-IAb'
p287
aS'HLA-DRA01:01-DRB107:01'
p288
aS'HLA-DQB106:02'
p289
aS'HLA-DQB103:19'
p290
aS'HLA-RT01:01'
p291
aS'HLA-DQA105:01-DQB102:01'
p292
aS'HLA-DQA105:01-DQB104:02'
p293
aS'HLA-DQA103:01-DQB103:02'
p294
aS'H-2-Lq'
p295
aS'HLA-B61:01'
p296
aS'HLA-A30:02'
p297
aS'Patr-A07:01'
p298
aS'HLA-A30:01'
p299
aS'Mamu-A11:01'
p300
aS'HLA-A31:01'
p301
aS'HLA-B55:01'
p302
aS'HLA-BF02:0201'
p303
aS'HLA-B07:01'
p304
aS'HLA-B40:13'
p305
aS'HLA-C04:01'
p306
aS'H-2-IAd'
p307
aS'HLA-DRA01:01-DRB108:01'
p308
aS'HLA-DPB103:01'
p309
aS'HLA-C14:02'
p310
aS'Mamu-B03:01'
p311
aS'HLA-C07:02'
p312
aS'HLA-DRA01:01-DRB302:02'
p313
aS'HLA-C07:01'
p314
aS'Mamu-A02:0102'
p315
aS'HLA-DPB120:01'
p316
aS'Patr-B13:01'
p317
aS'HLA-B15:02'
p318
aS'HLA-DQA105:05-DQB103:01'
p319
aS'H-2-Kd'
p320
aS'HLA-DQA103:03-DQB104:02'
p321
aS'HLA-B39:01'
p322
aS'HLA-DRB112:01'
p323
aS'HLA-DRB112:02'
p324
aS'HLA-DRB113:01'
p325
asS'netMHCIIpan3'
p326
(lp327
S'BoLA-6*13:01'
p328
aS'BoLA-613:01'
p329
aS'BoLA-6:13:01'
p330
aS'BoLA-61301'
p331
aS'6*13:01'
p332
aS'613:01'
p333
aS'6:13:01'
p334
aS'61301'
p335
aS'Eqca-1*01:01'
p336
aS'Eqca-101:01'
p337
aS'Eqca-1:01:01'
p338
aS'Eqca-10101'
p339
aS'1*01:01'
p340
aS'101:01'
p341
aS'1:01:01'
p342
aS'10101'
p343
aS'H-2-Db'
p344
ag344
ag344
ag344
ag344
ag344
ag344
ag344
aS'H-2-Dd'
p345
ag345
ag345
ag345
ag345
ag345
ag345
ag345
aS'H-2-Kb'
p346
ag346
ag346
ag346
ag346
ag346
ag346
ag346
aS'H-2-Kd'
p347
ag347
ag347
ag347
ag347
ag347
ag347
ag347
aS'H-2-Kk'
p348
ag348
ag348
ag348
ag348
ag348
ag348
ag348
aS'H-2-Ld'
p349
ag349
ag349
ag349
ag349
ag349
ag349
ag349
aS'HLA-A*01:01'
p350
aS'HLA-A01:01'
p351
aS'HLA-A:01:01'
p352
aS'HLA-A0101'
p353
aS'A*01:01'
p354
aS'A01:01'
p355
aS'A:01:01'
p356
aS'A0101'
p357
aS'HLA-A*02:01'
p358
aS'HLA-A02:01'
p359
aS'HLA-A:02:01'
p360
aS'HLA-A0201'
p361
aS'A*02:01'
p362
aS'A02:01'
p363
aS'A:02:01'
p364
aS'A0201'
p365
aS'HLA-A*02:02'
p366
aS'HLA-A02:02'
p367
aS'HLA-A:02:02'
p368
aS'HLA-A0202'
p369
aS'A*02:02'
p370
aS'A02:02'
p371
aS'A:02:02'
p372
aS'A0202'
p373
aS'HLA-A*02:03'
p374
aS'HLA-A02:03'
p375
aS'HLA-A:02:03'
p376
aS'HLA-A0203'
p377
aS'A*02:03'
p378
aS'A02:03'
p379
aS'A:02:03'
p380
aS'A0203'
p381
aS'HLA-A*02:05'
p382
aS'HLA-A02:05'
p383
aS'HLA-A:02:05'
p384
aS'HLA-A0205'
p385
aS'A*02:05'
p386
aS'A02:05'
p387
aS'A:02:05'
p388
aS'A0205'
p389
aS'HLA-A*02:06'
p390
aS'HLA-A02:06'
p391
aS'HLA-A:02:06'
p392
aS'HLA-A0206'
p393
aS'A*02:06'
p394
aS'A02:06'
p395
aS'A:02:06'
p396
aS'A0206'
p397
aS'HLA-A*02:07'
p398
aS'HLA-A02:07'
p399
aS'HLA-A:02:07'
p400
aS'HLA-A0207'
p401
aS'A*02:07'
p402
aS'A02:07'
p403
aS'A:02:07'
p404
aS'A0207'
p405
aS'HLA-A*02:11'
p406
aS'HLA-A02:11'
p407
aS'HLA-A:02:11'
p408
aS'HLA-A0211'
p409
aS'A*02:11'
p410
aS'A02:11'
p411
aS'A:02:11'
p412
aS'A0211'
p413
aS'HLA-A*02:12'
p414
aS'HLA-A02:12'
p415
aS'HLA-A:02:12'
p416
aS'HLA-A0212'
p417
aS'A*02:12'
p418
aS'A02:12'
p419
aS'A:02:12'
p420
aS'A0212'
p421
aS'HLA-A*02:16'
p422
aS'HLA-A02:16'
p423
aS'HLA-A:02:16'
p424
aS'HLA-A0216'
p425
aS'A*02:16'
p426
aS'A02:16'
p427
aS'A:02:16'
p428
aS'A0216'
p429
aS'HLA-A*02:17'
p430
aS'HLA-A02:17'
p431
aS'HLA-A:02:17'
p432
aS'HLA-A0217'
p433
aS'A*02:17'
p434
aS'A02:17'
p435
aS'A:02:17'
p436
aS'A0217'
p437
aS'HLA-A*02:19'
p438
aS'HLA-A02:19'
p439
aS'HLA-A:02:19'
p440
aS'HLA-A0219'
p441
aS'A*02:19'
p442
aS'A02:19'
p443
aS'A:02:19'
p444
aS'A0219'
p445
aS'HLA-A*02:50'
p446
aS'HLA-A02:50'
p447
aS'HLA-A:02:50'
p448
aS'HLA-A0250'
p449
aS'A*02:50'
p450
aS'A02:50'
p451
aS'A:02:50'
p452
aS'A0250'
p453
aS'HLA-A*03:01'
p454
aS'HLA-A03:01'
p455
aS'HLA-A:03:01'
p456
aS'HLA-A0301'
p457
aS'A*03:01'
p458
aS'A03:01'
p459
aS'A:03:01'
p460
aS'A0301'
p461
aS'HLA-A*11:01'
p462
aS'HLA-A11:01'
p463
aS'HLA-A:11:01'
p464
aS'HLA-A1101'
p465
aS'A*11:01'
p466
aS'A11:01'
p467
aS'A:11:01'
p468
aS'A1101'
p469
aS'HLA-A*23:01'
p470
aS'HLA-A23:01'
p471
aS'HLA-A:23:01'
p472
aS'HLA-A2301'
p473
aS'A*23:01'
p474
aS'A23:01'
p475
aS'A:23:01'
p476
aS'A2301'
p477
aS'HLA-A*24:02'
p478
aS'HLA-A24:02'
p479
aS'HLA-A:24:02'
p480
aS'HLA-A2402'
p481
aS'A*24:02'
p482
aS'A24:02'
p483
aS'A:24:02'
p484
aS'A2402'
p485
aS'HLA-A*24:03'
p486
aS'HLA-A24:03'
p487
aS'HLA-A:24:03'
p488
aS'HLA-A2403'
p489
aS'A*24:03'
p490
aS'A24:03'
p491
aS'A:24:03'
p492
aS'A2403'
p493
aS'HLA-A*25:01'
p494
aS'HLA-A25:01'
p495
aS'HLA-A:25:01'
p496
aS'HLA-A2501'
p497
aS'A*25:01'
p498
aS'A25:01'
p499
aS'A:25:01'
p500
aS'A2501'
p501
aS'HLA-A*26:01'
p502
aS'HLA-A26:01'
p503
aS'HLA-A:26:01'
p504
aS'HLA-A2601'
p505
aS'A*26:01'
p506
aS'A26:01'
p507
aS'A:26:01'
p508
aS'A2601'
p509
aS'HLA-A*26:02'
p510
aS'HLA-A26:02'
p511
aS'HLA-A:26:02'
p512
aS'HLA-A2602'
p513
aS'A*26:02'
p514
aS'A26:02'
p515
aS'A:26:02'
p516
aS'A2602'
p517
aS'HLA-A*26:03'
p518
aS'HLA-A26:03'
p519
aS'HLA-A:26:03'
p520
aS'HLA-A2603'
p521
aS'A*26:03'
p522
aS'A26:03'
p523
aS'A:26:03'
p524
aS'A2603'
p525
aS'HLA-A*29:02'
p526
aS'HLA-A29:02'
p527
aS'HLA-A:29:02'
p528
aS'HLA-A2902'
p529
aS'A*29:02'
p530
aS'A29:02'
p531
aS'A:29:02'
p532
aS'A2902'
p533
aS'HLA-A*30:01'
p534
aS'HLA-A30:01'
p535
aS'HLA-A:30:01'
p536
aS'HLA-A3001'
p537
aS'A*30:01'
p538
aS'A30:01'
p539
aS'A:30:01'
p540
aS'A3001'
p541
aS'HLA-A*30:02'
p542
aS'HLA-A30:02'
p543
aS'HLA-A:30:02'
p544
aS'HLA-A3002'
p545
aS'A*30:02'
p546
aS'A30:02'
p547
aS'A:30:02'
p548
aS'A3002'
p549
aS'HLA-A*31:01'
p550
aS'HLA-A31:01'
p551
aS'HLA-A:31:01'
p552
aS'HLA-A3101'
p553
aS'A*31:01'
p554
aS'A31:01'
p555
aS'A:31:01'
p556
aS'A3101'
p557
aS'HLA-A*32:01'
p558
aS'HLA-A32:01'
p559
aS'HLA-A:32:01'
p560
aS'HLA-A3201'
p561
aS'A*32:01'
p562
aS'A32:01'
p563
aS'A:32:01'
p564
aS'A3201'
p565
aS'HLA-A*33:01'
p566
aS'HLA-A33:01'
p567
aS'HLA-A:33:01'
p568
aS'HLA-A3301'
p569
aS'A*33:01'
p570
aS'A33:01'
p571
aS'A:33:01'
p572
aS'A3301'
p573
aS'HLA-A*66:01'
p574
aS'HLA-A66:01'
p575
aS'HLA-A:66:01'
p576
aS'HLA-A6601'
p577
aS'A*66:01'
p578
aS'A66:01'
p579
aS'A:66:01'
p580
aS'A6601'
p581
aS'HLA-A*68:01'
p582
aS'HLA-A68:01'
p583
aS'HLA-A:68:01'
p584
aS'HLA-A6801'
p585
aS'A*68:01'
p586
aS'A68:01'
p587
aS'A:68:01'
p588
aS'A6801'
p589
aS'HLA-A*68:02'
p590
aS'HLA-A68:02'
p591
aS'HLA-A:68:02'
p592
aS'HLA-A6802'
p593
aS'A*68:02'
p594
aS'A68:02'
p595
aS'A:68:02'
p596
aS'A6802'
p597
aS'HLA-A*68:23'
p598
aS'HLA-A68:23'
p599
aS'HLA-A:68:23'
p600
aS'HLA-A6823'
p601
aS'A*68:23'
p602
aS'A68:23'
p603
aS'A:68:23'
p604
aS'A6823'
p605
aS'HLA-A*69:01'
p606
aS'HLA-A69:01'
p607
aS'HLA-A:69:01'
p608
aS'HLA-A6901'
p609
aS'A*69:01'
p610
aS'A69:01'
p611
aS'A:69:01'
p612
aS'A6901'
p613
aS'HLA-A*80:01'
p614
aS'HLA-A80:01'
p615
aS'HLA-A:80:01'
p616
aS'HLA-A8001'
p617
aS'A*80:01'
p618
aS'A80:01'
p619
aS'A:80:01'
p620
aS'A8001'
p621
aS'HLA-B*07:01'
p622
aS'HLA-B07:01'
p623
aS'HLA-B:07:01'
p624
aS'HLA-B0701'
p625
aS'B*07:01'
p626
aS'B07:01'
p627
aS'B:07:01'
p628
aS'B0701'
p629
aS'HLA-B*07:02'
p630
aS'HLA-B07:02'
p631
aS'HLA-B:07:02'
p632
aS'HLA-B0702'
p633
aS'B*07:02'
p634
aS'B07:02'
p635
aS'B:07:02'
p636
aS'B0702'
p637
aS'HLA-B*08:01'
p638
aS'HLA-B08:01'
p639
aS'HLA-B:08:01'
p640
aS'HLA-B0801'
p641
aS'B*08:01'
p642
aS'B08:01'
p643
aS'B:08:01'
p644
aS'B0801'
p645
aS'HLA-B*08:02'
p646
aS'HLA-B08:02'
p647
aS'HLA-B:08:02'
p648
aS'HLA-B0802'
p649
aS'B*08:02'
p650
aS'B08:02'
p651
aS'B:08:02'
p652
aS'B0802'
p653
aS'HLA-B*08:03'
p654
aS'HLA-B08:03'
p655
aS'HLA-B:08:03'
p656
aS'HLA-B0803'
p657
aS'B*08:03'
p658
aS'B08:03'
p659
aS'B:08:03'
p660
aS'B0803'
p661
aS'HLA-B*14:02'
p662
aS'HLA-B14:02'
p663
aS'HLA-B:14:02'
p664
aS'HLA-B1402'
p665
aS'B*14:02'
p666
aS'B14:02'
p667
aS'B:14:02'
p668
aS'B1402'
p669
aS'HLA-B*15:01'
p670
aS'HLA-B15:01'
p671
aS'HLA-B:15:01'
p672
aS'HLA-B1501'
p673
aS'B*15:01'
p674
aS'B15:01'
p675
aS'B:15:01'
p676
aS'B1501'
p677
aS'HLA-B*15:02'
p678
aS'HLA-B15:02'
p679
aS'HLA-B:15:02'
p680
aS'HLA-B1502'
p681
aS'B*15:02'
p682
aS'B15:02'
p683
aS'B:15:02'
p684
aS'B1502'
p685
aS'HLA-B*15:03'
p686
aS'HLA-B15:03'
p687
aS'HLA-B:15:03'
p688
aS'HLA-B1503'
p689
aS'B*15:03'
p690
aS'B15:03'
p691
aS'B:15:03'
p692
aS'B1503'
p693
aS'HLA-B*15:09'
p694
aS'HLA-B15:09'
p695
aS'HLA-B:15:09'
p696
aS'HLA-B1509'
p697
aS'B*15:09'
p698
aS'B15:09'
p699
aS'B:15:09'
p700
aS'B1509'
p701
aS'HLA-B*15:17'
p702
aS'HLA-B15:17'
p703
aS'HLA-B:15:17'
p704
aS'HLA-B1517'
p705
aS'B*15:17'
p706
aS'B15:17'
p707
aS'B:15:17'
p708
aS'B1517'
p709
aS'HLA-B*18:01'
p710
aS'HLA-B18:01'
p711
aS'HLA-B:18:01'
p712
aS'HLA-B1801'
p713
aS'B*18:01'
p714
aS'B18:01'
p715
aS'B:18:01'
p716
aS'B1801'
p717
aS'HLA-B*27:02'
p718
aS'HLA-B27:02'
p719
aS'HLA-B:27:02'
p720
aS'HLA-B2702'
p721
aS'B*27:02'
p722
aS'B27:02'
p723
aS'B:27:02'
p724
aS'B2702'
p725
aS'HLA-B*27:03'
p726
aS'HLA-B27:03'
p727
aS'HLA-B:27:03'
p728
aS'HLA-B2703'
p729
aS'B*27:03'
p730
aS'B27:03'
p731
aS'B:27:03'
p732
aS'B2703'
p733
aS'HLA-B*27:04'
p734
aS'HLA-B27:04'
p735
aS'HLA-B:27:04'
p736
aS'HLA-B2704'
p737
aS'B*27:04'
p738
aS'B27:04'
p739
aS'B:27:04'
p740
aS'B2704'
p741
aS'HLA-B*27:05'
p742
aS'HLA-B27:05'
p743
aS'HLA-B:27:05'
p744
aS'HLA-B2705'
p745
aS'B*27:05'
p746
aS'B27:05'
p747
aS'B:27:05'
p748
aS'B2705'
p749
aS'HLA-B*27:06'
p750
aS'HLA-B27:06'
p751
aS'HLA-B:27:06'
p752
aS'HLA-B2706'
p753
aS'B*27:06'
p754
aS'B27:06'
p755
aS'B:27:06'
p756
aS'B2706'
p757
aS'HLA-B*35:01'
p758
aS'HLA-B35:01'
p759
aS'HLA-B:35:01'
p760
aS'HLA-B3501'
p761
aS'B*35:01'
p762
aS'B35:01'
p763
aS'B:35:01'
p764
aS'B3501'
p765
aS'HLA-B*35:03'
p766
aS'HLA-B35:03'
p767
aS'HLA-B:35:03'
p768
aS'HLA-B3503'
p769
aS'B*35:03'
p770
aS'B35:03'
p771
aS'B:35:03'
p772
aS'B3503'
p773
aS'HLA-B*37:01'
p774
aS'HLA-B37:01'
p775
aS'HLA-B:37:01'
p776
aS'HLA-B3701'
p777
aS'B*37:01'
p778
aS'B37:01'
p779
aS'B:37:01'
p780
aS'B3701'
p781
aS'HLA-B*38:01'
p782
aS'HLA-B38:01'
p783
aS'HLA-B:38:01'
p784
aS'HLA-B3801'
p785
aS'B*38:01'
p786
aS'B38:01'
p787
aS'B:38:01'
p788
aS'B3801'
p789
aS'HLA-B*39:01'
p790
aS'HLA-B39:01'
p791
aS'HLA-B:39:01'
p792
aS'HLA-B3901'
p793
aS'B*39:01'
p794
aS'B39:01'
p795
aS'B:39:01'
p796
aS'B3901'
p797
aS'HLA-B*39:06'
p798
aS'HLA-B39:06'
p799
aS'HLA-B:39:06'
p800
aS'HLA-B3906'
p801
aS'B*39:06'
p802
aS'B39:06'
p803
aS'B:39:06'
p804
aS'B3906'
p805
aS'HLA-B*40:01'
p806
aS'HLA-B40:01'
p807
aS'HLA-B:40:01'
p808
aS'HLA-B4001'
p809
aS'B*40:01'
p810
aS'B40:01'
p811
aS'B:40:01'
p812
aS'B4001'
p813
aS'HLA-B*40:02'
p814
aS'HLA-B40:02'
p815
aS'HLA-B:40:02'
p816
aS'HLA-B4002'
p817
aS'B*40:02'
p818
aS'B40:02'
p819
aS'B:40:02'
p820
aS'B4002'
p821
aS'HLA-B*42:01'
p822
aS'HLA-B42:01'
p823
aS'HLA-B:42:01'
p824
aS'HLA-B4201'
p825
aS'B*42:01'
p826
aS'B42:01'
p827
aS'B:42:01'
p828
aS'B4201'
p829
aS'HLA-B*44:02'
p830
aS'HLA-B44:02'
p831
aS'HLA-B:44:02'
p832
aS'HLA-B4402'
p833
aS'B*44:02'
p834
aS'B44:02'
p835
aS'B:44:02'
p836
aS'B4402'
p837
aS'HLA-B*44:03'
p838
aS'HLA-B44:03'
p839
aS'HLA-B:44:03'
p840
aS'HLA-B4403'
p841
aS'B*44:03'
p842
aS'B44:03'
p843
aS'B:44:03'
p844
aS'B4403'
p845
aS'HLA-B*45:01'
p846
aS'HLA-B45:01'
p847
aS'HLA-B:45:01'
p848
aS'HLA-B4501'
p849
aS'B*45:01'
p850
aS'B45:01'
p851
aS'B:45:01'
p852
aS'B4501'
p853
aS'HLA-B*46:01'
p854
aS'HLA-B46:01'
p855
aS'HLA-B:46:01'
p856
aS'HLA-B4601'
p857
aS'B*46:01'
p858
aS'B46:01'
p859
aS'B:46:01'
p860
aS'B4601'
p861
aS'HLA-B*48:01'
p862
aS'HLA-B48:01'
p863
aS'HLA-B:48:01'
p864
aS'HLA-B4801'
p865
aS'B*48:01'
p866
aS'B48:01'
p867
aS'B:48:01'
p868
aS'B4801'
p869
aS'HLA-B*51:01'
p870
aS'HLA-B51:01'
p871
aS'HLA-B:51:01'
p872
aS'HLA-B5101'
p873
aS'B*51:01'
p874
aS'B51:01'
p875
aS'B:51:01'
p876
aS'B5101'
p877
aS'HLA-B*53:01'
p878
aS'HLA-B53:01'
p879
aS'HLA-B:53:01'
p880
aS'HLA-B5301'
p881
aS'B*53:01'
p882
aS'B53:01'
p883
aS'B:53:01'
p884
aS'B5301'
p885
aS'HLA-B*54:01'
p886
aS'HLA-B54:01'
p887
aS'HLA-B:54:01'
p888
aS'HLA-B5401'
p889
aS'B*54:01'
p890
aS'B54:01'
p891
aS'B:54:01'
p892
aS'B5401'
p893
aS'HLA-B*57:01'
p894
aS'HLA-B57:01'
p895
aS'HLA-B:57:01'
p896
aS'HLA-B5701'
p897
aS'B*57:01'
p898
aS'B57:01'
p899
aS'B:57:01'
p900
aS'B5701'
p901
aS'HLA-B*58:01'
p902
aS'HLA-B58:01'
p903
aS'HLA-B:58:01'
p904
aS'HLA-B5801'
p905
aS'B*58:01'
p906
aS'B58:01'
p907
aS'B:58:01'
p908
aS'B5801'
p909
aS'HLA-B*83:01'
p910
aS'HLA-B83:01'
p911
aS'HLA-B:83:01'
p912
aS'HLA-B8301'
p913
aS'B*83:01'
p914
aS'B83:01'
p915
aS'B:83:01'
p916
aS'B8301'
p917
aS'HLA-C*03:03'
p918
aS'HLA-C03:03'
p919
aS'HLA-C:03:03'
p920
aS'HLA-C0303'
p921
aS'C*03:03'
p922
aS'C03:03'
p923
aS'C:03:03'
p924
aS'C0303'
p925
aS'HLA-C*04:01'
p926
aS'HLA-C04:01'
p927
aS'HLA-C:04:01'
p928
aS'HLA-C0401'
p929
aS'C*04:01'
p930
aS'C04:01'
p931
aS'C:04:01'
p932
aS'C0401'
p933
aS'HLA-C*05:01'
p934
aS'HLA-C05:01'
p935
aS'HLA-C:05:01'
p936
aS'HLA-C0501'
p937
aS'C*05:01'
p938
aS'C05:01'
p939
aS'C:05:01'
p940
aS'C0501'
p941
aS'HLA-C*06:02'
p942
aS'HLA-C06:02'
p943
aS'HLA-C:06:02'
p944
aS'HLA-C0602'
p945
aS'C*06:02'
p946
aS'C06:02'
p947
aS'C:06:02'
p948
aS'C0602'
p949
aS'HLA-C*07:02'
p950
aS'HLA-C07:02'
p951
aS'HLA-C:07:02'
p952
aS'HLA-C0702'
p953
aS'C*07:02'
p954
aS'C07:02'
p955
aS'C:07:02'
p956
aS'C0702'
p957
aS'HLA-C*08:02'
p958
aS'HLA-C08:02'
p959
aS'HLA-C:08:02'
p960
aS'HLA-C0802'
p961
aS'C*08:02'
p962
aS'C08:02'
p963
aS'C:08:02'
p964
aS'C0802'
p965
aS'HLA-C*12:03'
p966
aS'HLA-C12:03'
p967
aS'HLA-C:12:03'
p968
aS'HLA-C1203'
p969
aS'C*12:03'
p970
aS'C12:03'
p971
aS'C:12:03'
p972
aS'C1203'
p973
aS'HLA-C*14:02'
p974
aS'HLA-C14:02'
p975
aS'HLA-C:14:02'
p976
aS'HLA-C1402'
p977
aS'C*14:02'
p978
aS'C14:02'
p979
aS'C:14:02'
p980
aS'C1402'
p981
aS'HLA-C*15:02'
p982
aS'HLA-C15:02'
p983
aS'HLA-C:15:02'
p984
aS'HLA-C1502'
p985
aS'C*15:02'
p986
aS'C15:02'
p987
aS'C:15:02'
p988
aS'C1502'
p989
aS'Mamu-A*01:01'
p990
aS'Mamu-A01:01'
p991
aS'Mamu-A:01:01'
p992
aS'Mamu-A0101'
p993
aS'A*01:01'
p994
aS'A01:01'
p995
aS'A:01:01'
p996
aS'A0101'
p997
aS'Mamu-A*02:01'
p998
aS'Mamu-A02:01'
p999
aS'Mamu-A:02:01'
p1000
aS'Mamu-A0201'
p1001
aS'A*02:01'
p1002
aS'A02:01'
p1003
aS'A:02:01'
p1004
aS'A0201'
p1005
aS'Mamu-A*02:0102'
p1006
aS'Mamu-A02:0102'
p1007
aS'Mamu-A:02:0102'
p1008
aS'Mamu-A020102'
p1009
aS'A*02:0102'
p1010
aS'A02:0102'
p1011
aS'A:02:0102'
p1012
aS'A020102'
p1013
aS'Mamu-A*07:01'
p1014
aS'Mamu-A07:01'
p1015
aS'Mamu-A:07:01'
p1016
aS'Mamu-A0701'
p1017
aS'A*07:01'
p1018
aS'A07:01'
p1019
aS'A:07:01'
p1020
aS'A0701'
p1021
aS'Mamu-A*07:0103'
p1022
aS'Mamu-A07:0103'
p1023
aS'Mamu-A:07:0103'
p1024
aS'Mamu-A070103'
p1025
aS'A*07:0103'
p1026
aS'A07:0103'
p1027
aS'A:07:0103'
p1028
aS'A070103'
p1029
aS'Mamu-A*11:01'
p1030
aS'Mamu-A11:01'
p1031
aS'Mamu-A:11:01'
p1032
aS'Mamu-A1101'
p1033
aS'A*11:01'
p1034
aS'A11:01'
p1035
aS'A:11:01'
p1036
aS'A1101'
p1037
aS'Mamu-A*22:01'
p1038
aS'Mamu-A22:01'
p1039
aS'Mamu-A:22:01'
p1040
aS'Mamu-A2201'
p1041
aS'A*22:01'
p1042
aS'A22:01'
p1043
aS'A:22:01'
p1044
aS'A2201'
p1045
aS'Mamu-A*26:01'
p1046
aS'Mamu-A26:01'
p1047
aS'Mamu-A:26:01'
p1048
aS'Mamu-A2601'
p1049
aS'A*26:01'
p1050
aS'A26:01'
p1051
aS'A:26:01'
p1052
aS'A2601'
p1053
aS'Mamu-B*01:01'
p1054
aS'Mamu-B01:01'
p1055
aS'Mamu-B:01:01'
p1056
aS'Mamu-B0101'
p1057
aS'B*01:01'
p1058
aS'B01:01'
p1059
aS'B:01:01'
p1060
aS'B0101'
p1061
aS'Mamu-B*03:01'
p1062
aS'Mamu-B03:01'
p1063
aS'Mamu-B:03:01'
p1064
aS'Mamu-B0301'
p1065
aS'B*03:01'
p1066
aS'B03:01'
p1067
aS'B:03:01'
p1068
aS'B0301'
p1069
aS'Mamu-B*08:01'
p1070
aS'Mamu-B08:01'
p1071
aS'Mamu-B:08:01'
p1072
aS'Mamu-B0801'
p1073
aS'B*08:01'
p1074
aS'B08:01'
p1075
aS'B:08:01'
p1076
aS'B0801'
p1077
aS'Mamu-B*10:01'
p1078
aS'Mamu-B10:01'
p1079
aS'Mamu-B:10:01'
p1080
aS'Mamu-B1001'
p1081
aS'B*10:01'
p1082
aS'B10:01'
p1083
aS'B:10:01'
p1084
aS'B1001'
p1085
aS'Mamu-B*17:01'
p1086
aS'Mamu-B17:01'
p1087
aS'Mamu-B:17:01'
p1088
aS'Mamu-B1701'
p1089
aS'B*17:01'
p1090
aS'B17:01'
p1091
aS'B:17:01'
p1092
aS'B1701'
p1093
aS'Mamu-B*17:04'
p1094
aS'Mamu-B17:04'
p1095
aS'Mamu-B:17:04'
p1096
aS'Mamu-B1704'
p1097
aS'B*17:04'
p1098
aS'B17:04'
p1099
aS'B:17:04'
p1100
aS'B1704'
p1101
aS'Mamu-B*39:01'
p1102
aS'Mamu-B39:01'
p1103
aS'Mamu-B:39:01'
p1104
aS'Mamu-B3901'
p1105
aS'B*39:01'
p1106
aS'B39:01'
p1107
aS'B:39:01'
p1108
aS'B3901'
p1109
aS'Mamu-B*52:01'
p1110
aS'Mamu-B52:01'
p1111
aS'Mamu-B:52:01'
p1112
aS'Mamu-B5201'
p1113
aS'B*52:01'
p1114
aS'B52:01'
p1115
aS'B:52:01'
p1116
aS'B5201'
p1117
aS'Mamu-B*83:01'
p1118
aS'Mamu-B83:01'
p1119
aS'Mamu-B:83:01'
p1120
aS'Mamu-B8301'
p1121
aS'B*83:01'
p1122
aS'B83:01'
p1123
aS'B:83:01'
p1124
aS'B8301'
p1125
aS'Patr-A*01:01'
p1126
aS'Patr-A01:01'
p1127
aS'Patr-A:01:01'
p1128
aS'Patr-A0101'
p1129
aS'A*01:01'
p1130
aS'A01:01'
p1131
aS'A:01:01'
p1132
aS'A0101'
p1133
aS'Patr-A*04:01'
p1134
aS'Patr-A04:01'
p1135
aS'Patr-A:04:01'
p1136
aS'Patr-A0401'
p1137
aS'A*04:01'
p1138
aS'A04:01'
p1139
aS'A:04:01'
p1140
aS'A0401'
p1141
aS'Patr-A*07:01'
p1142
aS'Patr-A07:01'
p1143
aS'Patr-A:07:01'
p1144
aS'Patr-A0701'
p1145
aS'A*07:01'
p1146
aS'A07:01'
p1147
aS'A:07:01'
p1148
aS'A0701'
p1149
aS'Patr-A*09:01'
p1150
aS'Patr-A09:01'
p1151
aS'Patr-A:09:01'
p1152
aS'Patr-A0901'
p1153
aS'A*09:01'
p1154
aS'A09:01'
p1155
aS'A:09:01'
p1156
aS'A0901'
p1157
aS'Patr-B*01:01'
p1158
aS'Patr-B01:01'
p1159
aS'Patr-B:01:01'
p1160
aS'Patr-B0101'
p1161
aS'B*01:01'
p1162
aS'B01:01'
p1163
aS'B:01:01'
p1164
aS'B0101'
p1165
aS'Patr-B*13:01'
p1166
aS'Patr-B13:01'
p1167
aS'Patr-B:13:01'
p1168
aS'Patr-B1301'
p1169
aS'B*13:01'
p1170
aS'B13:01'
p1171
aS'B:13:01'
p1172
aS'B1301'
p1173
aS'Patr-B*24:01'
p1174
aS'Patr-B24:01'
p1175
aS'Patr-B:24:01'
p1176
aS'Patr-B2401'
p1177
aS'B*24:01'
p1178
aS'B24:01'
p1179
aS'B:24:01'
p1180
aS'B2401'
p1181
asS'netMHC4'
p1182
(lp1183
S'BoLA-AW10'
p1184
aS'BoLA-D18.4'
p1185
aS'BoLA-HD6'
p1186
aS'BoLA-JSP.1'
p1187
aS'BoLA-T2C'
p1188
aS'BoLA-T2a'
p1189
aS'BoLA-T2b'
p1190
aS'H-2-Db'
p1191
aS'H-2-Dd'
p1192
aS'H-2-Kb'
p1193
aS'H-2-Kd'
p1194
aS'H-2-Kk'
p1195
aS'H-2-Ld'
p1196
aS'HLA-A0101'
p1197
aS'HLA-A0201'
p1198
aS'HLA-A0202'
p1199
aS'HLA-A0203'
p1200
aS'HLA-A0205'
p1201
aS'HLA-A0206'
p1202
aS'HLA-A0207'
p1203
aS'HLA-A0211'
p1204
aS'HLA-A0212'
p1205
aS'HLA-A0216'
p1206
aS'HLA-A0217'
p1207
aS'HLA-A0219'
p1208
aS'HLA-A0250'
p1209
aS'HLA-A0301'
p1210
aS'HLA-A0302'
p1211
aS'HLA-A0319'
p1212
aS'HLA-A1101'
p1213
aS'HLA-A2301'
p1214
aS'HLA-A2402'
p1215
aS'HLA-A2403'
p1216
aS'HLA-A2501'
p1217
aS'HLA-A2601'
p1218
aS'HLA-A2602'
p1219
aS'HLA-A2603'
p1220
aS'HLA-A2902'
p1221
aS'HLA-A3001'
p1222
aS'HLA-A3002'
p1223
aS'HLA-A3101'
p1224
aS'HLA-A3201'
p1225
aS'HLA-A3207'
p1226
aS'HLA-A3215'
p1227
aS'HLA-A3301'
p1228
aS'HLA-A6601'
p1229
aS'HLA-A6801'
p1230
aS'HLA-A6802'
p1231
aS'HLA-A6823'
p1232
aS'HLA-A6901'
p1233
aS'HLA-A8001'
p1234
aS'HLA-B0702'
p1235
aS'HLA-B0801'
p1236
aS'HLA-B0802'
p1237
aS'HLA-B0803'
p1238
aS'HLA-B1401'
p1239
aS'HLA-B1402'
p1240
aS'HLA-B1501'
p1241
aS'HLA-B1502'
p1242
aS'HLA-B1503'
p1243
aS'HLA-B1509'
p1244
aS'HLA-B1517'
p1245
aS'HLA-B1801'
p1246
aS'HLA-B2705'
p1247
aS'HLA-B2720'
p1248
aS'HLA-B3501'
p1249
aS'HLA-B3503'
p1250
aS'HLA-B3701'
p1251
aS'HLA-B3801'
p1252
aS'HLA-B3901'
p1253
aS'HLA-B4001'
p1254
aS'HLA-B4002'
p1255
aS'HLA-B4013'
p1256
aS'HLA-B4201'
p1257
aS'HLA-B4402'
p1258
aS'HLA-B4403'
p1259
aS'HLA-B4501'
p1260
aS'HLA-B4506'
p1261
aS'HLA-B4601'
p1262
aS'HLA-B4801'
p1263
aS'HLA-B5101'
p1264
aS'HLA-B5301'
p1265
aS'HLA-B5401'
p1266
aS'HLA-B5701'
p1267
aS'HLA-B5703'
p1268
aS'HLA-B5801'
p1269
aS'HLA-B5802'
p1270
aS'HLA-B7301'
p1271
aS'HLA-B8101'
p1272
aS'HLA-B8301'
p1273
aS'HLA-C0303'
p1274
aS'HLA-C0401'
p1275
aS'HLA-C0501'
p1276
aS'HLA-C0602'
p1277
aS'HLA-C0701'
p1278
aS'HLA-C0702'
p1279
aS'HLA-C0802'
p1280
aS'HLA-C1203'
p1281
aS'HLA-C1402'
p1282
aS'HLA-C1502'
p1283
aS'HLA-E0101'
p1284
aS'HLA-E0103'
p1285
aS'Mamu-A01'
p1286
aS'Mamu-A02'
p1287
aS'Mamu-A07'
p1288
aS'Mamu-A11'
p1289
aS'Mamu-A20102'
p1290
aS'Mamu-A2201'
p1291
aS'Mamu-A2601'
p1292
aS'Mamu-A70103'
p1293
aS'Mamu-B01'
p1294
aS'Mamu-B03'
p1295
aS'Mamu-B08'
p1296
aS'Mamu-B1001'
p1297
aS'Mamu-B17'
p1298
aS'Mamu-B3901'
p1299
aS'Mamu-B52'
p1300
aS'Mamu-B6601'
p1301
aS'Mamu-B8301'
p1302
aS'Mamu-B8701'
p1303
aS'Patr-A0101'
p1304
aS'Patr-A0301'
p1305
aS'Patr-A0401'
p1306
aS'Patr-A0701'
p1307
aS'Patr-A0901'
p1308
aS'Patr-B0101'
p1309
aS'Patr-B1301'
p1310
aS'Patr-B2401'
p1311
aS'SLA-10401'
p1312
aS'SLA-10701'
p1313
aS'SLA-20401'
p1314
aS'SLA-30401'
p1315
asS'mhcflurry'
p1316
g327
sS'netMHCpan4'
p1317
g327
sS'pickpocket1'
p1318
g327
sS'mhcnuggets_mhcII'
p1319
(lp1320
S'Eqca-N06:02'
p1321
aS'HLA-B15:01'
p1322
aS'HLA-DQA106:01-DQB104:02'
p1323
aS'HLA-B44:05'
p1324
aS'HLA-B15:03'
p1325
aS'HLA-B44:01'
p1326
aS'HLA-B12:01'
p1327
aS'HLA-B44:03'
p1328
aS'BoLA-641:01'
p1329
aS'HLA-C03:03'
p1330
aS'HLA-DRB107:01'
p1331
aS'BoLA-DRB311:01'
p1332
aS'HLA-A11:02'
p1333
aS'HLA-C03:04'
p1334
aS'HLA-DRA01:01-DRB114:54'
p1335
aS'HLA-A69:01'
p1336
aS'HLA-DRB115:02'
p1337
aS'HLA-DRA01:01-DRB301:01'
p1338
aS'Mamu-B52:01'
p1339
aS'HLA-B27:06'
p1340
aS'HLA-B27:05'
p1341
aS'HLA-B27:04'
p1342
aS'HLA-B27:03'
p1343
aS'HLA-B27:02'
p1344
aS'HLA-B27:01'
p1345
aS'HLA-B15:17'
p1346
aS'HLA-B15:16'
p1347
aS'HLA-B15:10'
p1348
aS'HLA-B27:09'
p1349
aS'HLA-DRA01:01-DRB104:04'
p1350
aS'HLA-DRB303:01'
p1351
aS'HLA-DRA01:01-DRB115:01'
p1352
aS'H-2-IAu'
p1353
aS'HLA-DQA104:01-DQB104:02'
p1354
aS'HLA-DPA101:03-DPB103:01'
p1355
aS'HLA-B42:02'
p1356
aS'HLA-DPB105:01'
p1357
aS'HLA-DRB302:02'
p1358
aS'HLA-DRA01:01-DRB101:01'
p1359
aS'HLA-B38:01'
p1360
aS'HLA-C15:02'
p1361
aS'HLA-DRB109:01'
p1362
aS'H-2-IEd'
p1363
aS'HLA-DQA102:01-DQB104:02'
p1364
aS'H-2-IEb'
p1365
aS'HLA-DQA101:02-DQB105:01'
p1366
aS'HLA-B40:01'
p1367
aS'Patr-B01:01'
p1368
aS'HLA-B42:01'
p1369
aS'H-2-IEk'
p1370
aS'HLA-B40:02'
p1371
aS'HLA-B45:06'
p1372
aS'Patr-A01:01'
p1373
aS'HLA-A26:01'
p1374
aS'HLA-C12:03'
p1375
aS'H-2-IEr'
p1376
aS'H-2-IEp'
p1377
aS'HLA-A32:01'
p1378
aS'HLA-DRB110:01'
p1379
aS'HLA-A26:03'
p1380
aS'Patr-B17:01'
p1381
aS'HLA-A32:07'
p1382
aS'HLA-DRB111:01'
p1383
aS'HLA-A26:02'
p1384
aS'HLA-DRB116:02'
p1385
aS'HLA-DRA01:01-DRB501:01'
p1386
aS'HLA-A68:23'
p1387
aS'Patr-A04:01'
p1388
aS'HLA-BF01:0201'
p1389
aS'HLA-DPB109:01'
p1390
aS'HLA-B73:01'
p1391
aS'HLA-DRB108:01'
p1392
aS'BoLA-613:01'
p1393
aS'HLA-DQB105:01'
p1394
aS'HLA-DQB105:02'
p1395
aS'HLA-DQB105:03'
p1396
aS'SLA-204:01'
p1397
aS'HLA-DQA103:02-DQB103:01'
p1398
aS'BoLA-208:01'
p1399
aS'HLA-C08:02'
p1400
aS'HLA-C08:01'
p1401
aS'HLA-BF02:0401'
p1402
aS'Mamu-A07:01'
p1403
aS'HLA-A11:01'
p1404
aS'Mamu-B39:01'
p1405
aS'HLA-B18:01'
p1406
aS'HLA-DQA102:01-DQB103:01'
p1407
aS'HLA-A02:11'
p1408
aS'HLA-A02:12'
p1409
aS'HLA-A01:01'
p1410
aS'HLA-A02:14'
p1411
aS'HLA-A02:16'
p1412
aS'HLA-A02:17'
p1413
aS'HLA-B14:01'
p1414
aS'HLA-A02:19'
p1415
aS'HLA-A32:15'
p1416
aS'HLA-B14:02'
p1417
aS'HLA-DRB301:01'
p1418
aS'HLA-A74:01'
p1419
aS'HLA-A23:01'
p1420
aS'HLA-A80:01'
p1421
aS'Patr-B09:01'
p1422
aS'Gogo-B01:01'
p1423
aS'BoLA-DRB312:01'
p1424
aS'HLA-DRB113:04'
p1425
aS'HLA-DQA103:02-DQB104:01'
p1426
aS'HLA-DQB102:01'
p1427
aS'HLA-DRB113:03'
p1428
aS'HLA-DQB102:02'
p1429
aS'HLA-DPA102:01-DPB105:01'
p1430
aS'Mamu-B65:02'
p1431
aS'HLA-DPA101:03-DPB104:01'
p1432
aS'HLA-DPA101:03-DPB104:02'
p1433
aS'HLA-DRB101:01'
p1434
aS'HLA-B48:01'
p1435
aS'HLA-DRB101:03'
p1436
aS'HLA-BF02:1201'
p1437
aS'HLA-DQA105:01-DQB103:02'
p1438
aS'HLA-DQA105:01-DQB103:03'
p1439
aS'HLA-DQA105:01-DQB103:01'
p1440
aS'HLA-DQA103:01-DQB103:01'
p1441
aS'HLA-B45:01'
p1442
aS'Mamu-A07:0103'
p1443
aS'HLA-B53:01'
p1444
aS'HLA-DRB103:05'
p1445
aS'HLA-DRA01:01-DRB111:01'
p1446
aS'HLA-DRB103:03'
p1447
aS'HLA-B57:01'
p1448
aS'HLA-DRB103:01'
p1449
aS'HLA-B57:03'
p1450
aS'HLA-DRB111:04'
p1451
aS'HLA-A02:06'
p1452
aS'HLA-A02:05'
p1453
aS'HLA-A02:04'
p1454
aS'HLA-A02:03'
p1455
aS'HLA-B57:02'
p1456
aS'HLA-A02:01'
p1457
aS'HLA-DRB111:03'
p1458
aS'HLA-B35:08'
p1459
aS'HLA-DQB104:02'
p1460
aS'HLA-B54:01'
p1461
aS'HLA-A02:09'
p1462
aS'HLA-A02:08'
p1463
aS'HLA-A02:07'
p1464
aS'HLA-A68:01'
p1465
aS'HLA-B46:01'
p1466
aS'HLA-DPB102:01'
p1467
aS'HLA-B35:01'
p1468
aS'HLA-DPB114:01'
p1469
aS'HLA-B52:01'
p1470
aS'HLA-A29:01'
p1471
aS'HLA-A29:02'
p1472
aS'HLA-DRB104:11'
p1473
aS'HLA-B44:02'
p1474
aS'H-2-Kk'
p1475
aS'HLA-B35:03'
p1476
aS'Mamu-DRB104:06'
p1477
aS'Mamu-B10:01'
p1478
aS'H-2-Kb'
p1479
aS'HLA-DRA01:01-DRB104:01'
p1480
aS'HLA-A02:02'
p1481
aS'HLA-DRA01:01-DRB401:03'
p1482
aS'Mamu-A02:01'
p1483
aS'HLA-DRB111:02'
p1484
aS'HLA-A66:01'
p1485
aS'Mamu-B01:01'
p1486
aS'HLA-B08:01'
p1487
aS'HLA-B08:02'
p1488
aS'HLA-B08:03'
p1489
aS'HLA-DQB103:02'
p1490
aS'HLA-C05:01'
p1491
aS'Eqca-101:01'
p1492
aS'Mamu-A22:01'
p1493
aS'HLA-DPB101:01'
p1494
aS'HLA-A24:02'
p1495
aS'HLA-A25:01'
p1496
aS'HLA-DPA102:02-DPB105:01'
p1497
aS'BoLA-A11:01'
p1498
aS'HLA-DQA101:01-DQB105:01'
p1499
aS'HLA-A33:03'
p1500
aS'HLA-DPB104:01'
p1501
aS'HLA-DPB104:02'
p1502
aS'HLA-B07:02'
p1503
aS'H-2-Dd'
p1504
aS'HLA-DRB101:02'
p1505
aS'Patr-A03:01'
p1506
aS'Mamu-B04:01'
p1507
aS'HLA-B83:01'
p1508
aS'HLA-DRA01:01-DRB303:01'
p1509
aS'HLA-DRB104:02'
p1510
aS'HLA-DRB104:03'
p1511
aS'HLA-DQA103:01-DQB102:01'
p1512
aS'HLA-DRB104:01'
p1513
aS'HLA-DRB104:06'
p1514
aS'HLA-DRB104:07'
p1515
aS'HLA-DRB104:04'
p1516
aS'HLA-DRB104:05'
p1517
aS'HLA-DPA103:01-DPB104:02'
p1518
aS'HLA-E01:03'
p1519
aS'H-2-IAk'
p1520
aS'HLA-A24:03'
p1521
aS'HLA-DQA101:03-DQB106:01'
p1522
aS'HLA-CW04:01'
p1523
aS'HLA-A68:02'
p1524
aS'Mamu-DRB01'
p1525
aS'HLA-DRB501:01'
p1526
aS'HLA-A24:01'
p1527
aS'HLA-DQA102:01-DQB103:03'
p1528
aS'Mamu-B08:01'
p1529
aS'Patr-B24:01'
p1530
aS'HLA-DRB114:02'
p1531
aS'HLA-DRB114:01'
p1532
aS'HLA-DPB111:01'
p1533
aS'HLA-B81:01'
p1534
aS'HLA-B15:09'
p1535
aS'H-2-IAs'
p1536
aS'H-2-IAr'
p1537
aS'H-2-IAq'
p1538
aS'H-2-IAp'
p1539
aS'Mamu-A26:01'
p1540
aS'Mamu-B87:01'
p1541
aS'HLA-DQA102:01-DQB102:01'
p1542
aS'HLA-DQA102:01-DQB102:02'
p1543
aS'ELA-A01:01'
p1544
aS'HLA-DRA01:01-DRB109:01'
p1545
aS'Mamu-A01:11'
p1546
aS'HLA-BF02:2101'
p1547
aS'HLA-B62:01'
p1548
aS'HLA-DQA101:04-DQB105:03'
p1549
aS'HLA-DRA01:01-DRB103:01'
p1550
aS'HLA-A03:01'
p1551
aS'HLA-A03:02'
p1552
aS'Patr-A06:01'
p1553
aS'HLA-DQA101:02-DQB106:02'
p1554
aS'SLA-104:01'
p1555
aS'HLA-B39:06'
p1556
aS'HLA-DRB115:01'
p1557
aS'Patr-A06:02'
p1558
aS'HLA-DQA101:02-DQB106:04'
p1559
aS'HLA-B51:01'
p1560
aS'HLA-DRB103:02'
p1561
aS'Patr-A05:01'
p1562
aS'Mamu-B83:01'
p1563
aS'HLA-DQA101:03-DQB106:03'
p1564
aS'HLA-DRA01:01-DRB113:01'
p1565
aS'H-2-Dk'
p1566
aS'BoLA-DRB302:01'
p1567
aS'H-2-Db'
p1568
aS'HLA-A33:01'
p1569
aS'HLA-DRB116:01'
p1570
aS'HLA-DQB103:01'
p1571
aS'HLA-DRB501:02'
p1572
aS'HLA-DQA103:01-DQB104:01'
p1573
aS'HLA-DRB113:02'
p1574
aS'HLA-DRB108:02'
p1575
aS'HLA-DRB108:03'
p1576
aS'HLA-RT11:01'
p1577
aS'HLA-DRB401:03'
p1578
aS'HLA-B58:01'
p1579
aS'HLA-B58:02'
p1580
aS'BoLA-212:01'
p1581
aS'__init__'
p1582
aS'HLA-DQA101:02-DQB105:02'
p1583
aS'HLA-B55:02'
p1584
aS'HLA-B15:42'
p1585
aS'HLA-DRB401:01'
p1586
aS'HLA-A02:50'
p1587
aS'Mamu-A01:01'
p1588
aS'Mamu-A01:02'
p1589
aS'HLA-B37:01'
p1590
aS'Patr-A09:01'
p1591
aS'HLA-DPA102:01-DPB101:01'
p1592
aS'HLA-A03:19'
p1593
aS'Mamu-B66:01'
p1594
aS'HLA-B27:20'
p1595
aS'HLA-DRB115:03'
p1596
aS'HLA-SLA01'
p1597
aS'Mamu-B17:04'
p1598
aS'HLA-C06:02'
p1599
aS'H-2-Ld'
p1600
aS'HLA-DPA101:03-DPB102:01'
p1601
aS'Mamu-B17:01'
p1602
aS'DLA-88508:01'
p1603
aS'SLA-302:02'
p1604
aS'H-2-IAb'
p1605
aS'HLA-DRA01:01-DRB107:01'
p1606
aS'HLA-DQB106:02'
p1607
aS'HLA-DQB103:19'
p1608
aS'HLA-RT01:01'
p1609
aS'HLA-DQA105:01-DQB102:01'
p1610
aS'HLA-DQA105:01-DQB104:02'
p1611
aS'HLA-DQA103:01-DQB103:02'
p1612
aS'H-2-Lq'
p1613
aS'HLA-B61:01'
p1614
aS'HLA-A30:02'
p1615
aS'Patr-A07:01'
p1616
aS'HLA-A30:01'
p1617
aS'Mamu-A11:01'
p1618
aS'HLA-A31:01'
p1619
aS'HLA-B55:01'
p1620
aS'HLA-BF02:0201'
p1621
aS'HLA-B07:01'
p1622
aS'HLA-B40:13'
p1623
aS'HLA-C04:01'
p1624
aS'H-2-IAd'
p1625
aS'HLA-DRA01:01-DRB108:01'
p1626
aS'HLA-DPB103:01'
p1627
aS'HLA-C14:02'
p1628
aS'Mamu-B03:01'
p1629
aS'HLA-C07:02'
p1630
aS'HLA-DRA01:01-DRB302:02'
p1631
aS'HLA-C07:01'
p1632
aS'Mamu-A02:0102'
p1633
aS'HLA-DPB120:01'
p1634
aS'Patr-B13:01'
p1635
aS'HLA-B15:02'
p1636
aS'HLA-DQA105:05-DQB103:01'
p1637
aS'H-2-Kd'
p1638
aS'HLA-DQA103:03-DQB104:02'
p1639
aS'HLA-B39:01'
p1640
aS'HLA-DRB112:01'
p1641
aS'HLA-DRB112:02'
p1642
aS'HLA-DRB113:01'
p1643
asS'netMHCpan3'
p1644
(lp1645
S'HLA-A01:01'
p1646
aS'HLA-A01:02'
p1647
aS'HLA-A01:03'
p1648
aS'HLA-A01:06'
p1649
aS'HLA-A01:07'
p1650
aS'HLA-A01:08'
p1651
aS'HLA-A01:09'
p1652
aS'HLA-A01:10'
p1653
aS'HLA-A01:12'
p1654
aS'HLA-A01:13'
p1655
aS'HLA-A01:14'
p1656
aS'HLA-A01:17'
p1657
aS'HLA-A01:19'
p1658
aS'HLA-A01:20'
p1659
aS'HLA-A01:21'
p1660
aS'HLA-A01:23'
p1661
aS'HLA-A01:24'
p1662
aS'HLA-A01:25'
p1663
aS'HLA-A01:26'
p1664
aS'HLA-A01:28'
p1665
aS'HLA-A01:29'
p1666
aS'HLA-A01:30'
p1667
aS'HLA-A01:32'
p1668
aS'HLA-A01:33'
p1669
aS'HLA-A01:35'
p1670
aS'HLA-A01:36'
p1671
aS'HLA-A01:37'
p1672
aS'HLA-A01:38'
p1673
aS'HLA-A01:39'
p1674
aS'HLA-A01:40'
p1675
aS'HLA-A01:41'
p1676
aS'HLA-A01:42'
p1677
aS'HLA-A01:43'
p1678
aS'HLA-A01:44'
p1679
aS'HLA-A01:45'
p1680
aS'HLA-A01:46'
p1681
aS'HLA-A01:47'
p1682
aS'HLA-A01:48'
p1683
aS'HLA-A01:49'
p1684
aS'HLA-A01:50'
p1685
aS'HLA-A01:51'
p1686
aS'HLA-A01:54'
p1687
aS'HLA-A01:55'
p1688
aS'HLA-A01:58'
p1689
aS'HLA-A01:59'
p1690
aS'HLA-A01:60'
p1691
aS'HLA-A01:61'
p1692
aS'HLA-A01:62'
p1693
aS'HLA-A01:63'
p1694
aS'HLA-A01:64'
p1695
aS'HLA-A01:65'
p1696
aS'HLA-A01:66'
p1697
aS'HLA-A02:01'
p1698
aS'HLA-A02:02'
p1699
aS'HLA-A02:03'
p1700
aS'HLA-A02:04'
p1701
aS'HLA-A02:05'
p1702
aS'HLA-A02:06'
p1703
aS'HLA-A02:07'
p1704
aS'HLA-A02:08'
p1705
aS'HLA-A02:09'
p1706
aS'HLA-A02:10'
p1707
aS'HLA-A02:11'
p1708
aS'HLA-A02:12'
p1709
aS'HLA-A02:13'
p1710
aS'HLA-A02:14'
p1711
aS'HLA-A02:16'
p1712
aS'HLA-A02:17'
p1713
aS'HLA-A02:18'
p1714
aS'HLA-A02:19'
p1715
aS'HLA-A02:20'
p1716
aS'HLA-A02:21'
p1717
aS'HLA-A02:22'
p1718
aS'HLA-A02:24'
p1719
aS'HLA-A02:25'
p1720
aS'HLA-A02:26'
p1721
aS'HLA-A02:27'
p1722
aS'HLA-A02:28'
p1723
aS'HLA-A02:29'
p1724
aS'HLA-A02:30'
p1725
aS'HLA-A02:31'
p1726
aS'HLA-A02:33'
p1727
aS'HLA-A02:34'
p1728
aS'HLA-A02:35'
p1729
aS'HLA-A02:36'
p1730
aS'HLA-A02:37'
p1731
aS'HLA-A02:38'
p1732
aS'HLA-A02:39'
p1733
aS'HLA-A02:40'
p1734
aS'HLA-A02:41'
p1735
aS'HLA-A02:42'
p1736
aS'HLA-A02:44'
p1737
aS'HLA-A02:45'
p1738
aS'HLA-A02:46'
p1739
aS'HLA-A02:47'
p1740
aS'HLA-A02:48'
p1741
aS'HLA-A02:49'
p1742
aS'HLA-A02:50'
p1743
aS'HLA-A02:51'
p1744
aS'HLA-A02:52'
p1745
aS'HLA-A02:54'
p1746
aS'HLA-A02:55'
p1747
aS'HLA-A02:56'
p1748
aS'HLA-A02:57'
p1749
aS'HLA-A02:58'
p1750
aS'HLA-A02:59'
p1751
aS'HLA-A02:60'
p1752
aS'HLA-A02:61'
p1753
aS'HLA-A02:62'
p1754
aS'HLA-A02:63'
p1755
aS'HLA-A02:64'
p1756
aS'HLA-A02:65'
p1757
aS'HLA-A02:66'
p1758
aS'HLA-A02:67'
p1759
aS'HLA-A02:68'
p1760
aS'HLA-A02:69'
p1761
aS'HLA-A02:70'
p1762
aS'HLA-A02:71'
p1763
aS'HLA-A02:72'
p1764
aS'HLA-A02:73'
p1765
aS'HLA-A02:74'
p1766
aS'HLA-A02:75'
p1767
aS'HLA-A02:76'
p1768
aS'HLA-A02:77'
p1769
aS'HLA-A02:78'
p1770
aS'HLA-A02:79'
p1771
aS'HLA-A02:80'
p1772
aS'HLA-A02:81'
p1773
aS'HLA-A02:84'
p1774
aS'HLA-A02:85'
p1775
aS'HLA-A02:86'
p1776
aS'HLA-A02:87'
p1777
aS'HLA-A02:89'
p1778
aS'HLA-A02:90'
p1779
aS'HLA-A02:91'
p1780
aS'HLA-A02:92'
p1781
aS'HLA-A02:93'
p1782
aS'HLA-A02:95'
p1783
aS'HLA-A02:96'
p1784
aS'HLA-A02:97'
p1785
aS'HLA-A02:99'
p1786
aS'HLA-A02:101'
p1787
aS'HLA-A02:102'
p1788
aS'HLA-A02:103'
p1789
aS'HLA-A02:104'
p1790
aS'HLA-A02:105'
p1791
aS'HLA-A02:106'
p1792
aS'HLA-A02:107'
p1793
aS'HLA-A02:108'
p1794
aS'HLA-A02:109'
p1795
aS'HLA-A02:110'
p1796
aS'HLA-A02:111'
p1797
aS'HLA-A02:112'
p1798
aS'HLA-A02:114'
p1799
aS'HLA-A02:115'
p1800
aS'HLA-A02:116'
p1801
aS'HLA-A02:117'
p1802
aS'HLA-A02:118'
p1803
aS'HLA-A02:119'
p1804
aS'HLA-A02:120'
p1805
aS'HLA-A02:121'
p1806
aS'HLA-A02:122'
p1807
aS'HLA-A02:123'
p1808
aS'HLA-A02:124'
p1809
aS'HLA-A02:126'
p1810
aS'HLA-A02:127'
p1811
aS'HLA-A02:128'
p1812
aS'HLA-A02:129'
p1813
aS'HLA-A02:130'
p1814
aS'HLA-A02:131'
p1815
aS'HLA-A02:132'
p1816
aS'HLA-A02:133'
p1817
aS'HLA-A02:134'
p1818
aS'HLA-A02:135'
p1819
aS'HLA-A02:136'
p1820
aS'HLA-A02:137'
p1821
aS'HLA-A02:138'
p1822
aS'HLA-A02:139'
p1823
aS'HLA-A02:140'
p1824
aS'HLA-A02:141'
p1825
aS'HLA-A02:142'
p1826
aS'HLA-A02:143'
p1827
aS'HLA-A02:144'
p1828
aS'HLA-A02:145'
p1829
aS'HLA-A02:146'
p1830
aS'HLA-A02:147'
p1831
aS'HLA-A02:148'
p1832
aS'HLA-A02:149'
p1833
aS'HLA-A02:150'
p1834
aS'HLA-A02:151'
p1835
aS'HLA-A02:152'
p1836
aS'HLA-A02:153'
p1837
aS'HLA-A02:154'
p1838
aS'HLA-A02:155'
p1839
aS'HLA-A02:156'
p1840
aS'HLA-A02:157'
p1841
aS'HLA-A02:158'
p1842
aS'HLA-A02:159'
p1843
aS'HLA-A02:160'
p1844
aS'HLA-A02:161'
p1845
aS'HLA-A02:162'
p1846
aS'HLA-A02:163'
p1847
aS'HLA-A02:164'
p1848
aS'HLA-A02:165'
p1849
aS'HLA-A02:166'
p1850
aS'HLA-A02:167'
p1851
aS'HLA-A02:168'
p1852
aS'HLA-A02:169'
p1853
aS'HLA-A02:170'
p1854
aS'HLA-A02:171'
p1855
aS'HLA-A02:172'
p1856
aS'HLA-A02:173'
p1857
aS'HLA-A02:174'
p1858
aS'HLA-A02:175'
p1859
aS'HLA-A02:176'
p1860
aS'HLA-A02:177'
p1861
aS'HLA-A02:178'
p1862
aS'HLA-A02:179'
p1863
aS'HLA-A02:180'
p1864
aS'HLA-A02:181'
p1865
aS'HLA-A02:182'
p1866
aS'HLA-A02:183'
p1867
aS'HLA-A02:184'
p1868
aS'HLA-A02:185'
p1869
aS'HLA-A02:186'
p1870
aS'HLA-A02:187'
p1871
aS'HLA-A02:188'
p1872
aS'HLA-A02:189'
p1873
aS'HLA-A02:190'
p1874
aS'HLA-A02:191'
p1875
aS'HLA-A02:192'
p1876
aS'HLA-A02:193'
p1877
aS'HLA-A02:194'
p1878
aS'HLA-A02:195'
p1879
aS'HLA-A02:196'
p1880
aS'HLA-A02:197'
p1881
aS'HLA-A02:198'
p1882
aS'HLA-A02:199'
p1883
aS'HLA-A02:200'
p1884
aS'HLA-A02:201'
p1885
aS'HLA-A02:202'
p1886
aS'HLA-A02:203'
p1887
aS'HLA-A02:204'
p1888
aS'HLA-A02:205'
p1889
aS'HLA-A02:206'
p1890
aS'HLA-A02:207'
p1891
aS'HLA-A02:208'
p1892
aS'HLA-A02:209'
p1893
aS'HLA-A02:210'
p1894
aS'HLA-A02:211'
p1895
aS'HLA-A02:212'
p1896
aS'HLA-A02:213'
p1897
aS'HLA-A02:214'
p1898
aS'HLA-A02:215'
p1899
aS'HLA-A02:216'
p1900
aS'HLA-A02:217'
p1901
aS'HLA-A02:218'
p1902
aS'HLA-A02:219'
p1903
aS'HLA-A02:220'
p1904
aS'HLA-A02:221'
p1905
aS'HLA-A02:224'
p1906
aS'HLA-A02:228'
p1907
aS'HLA-A02:229'
p1908
aS'HLA-A02:230'
p1909
aS'HLA-A02:231'
p1910
aS'HLA-A02:232'
p1911
aS'HLA-A02:233'
p1912
aS'HLA-A02:234'
p1913
aS'HLA-A02:235'
p1914
aS'HLA-A02:236'
p1915
aS'HLA-A02:237'
p1916
aS'HLA-A02:238'
p1917
aS'HLA-A02:239'
p1918
aS'HLA-A02:240'
p1919
aS'HLA-A02:241'
p1920
aS'HLA-A02:242'
p1921
aS'HLA-A02:243'
p1922
aS'HLA-A02:244'
p1923
aS'HLA-A02:245'
p1924
aS'HLA-A02:246'
p1925
aS'HLA-A02:247'
p1926
aS'HLA-A02:248'
p1927
aS'HLA-A02:249'
p1928
aS'HLA-A02:251'
p1929
aS'HLA-A02:252'
p1930
aS'HLA-A02:253'
p1931
aS'HLA-A02:254'
p1932
aS'HLA-A02:255'
p1933
aS'HLA-A02:256'
p1934
aS'HLA-A02:257'
p1935
aS'HLA-A02:258'
p1936
aS'HLA-A02:259'
p1937
aS'HLA-A02:260'
p1938
aS'HLA-A02:261'
p1939
aS'HLA-A02:262'
p1940
aS'HLA-A02:263'
p1941
aS'HLA-A02:264'
p1942
aS'HLA-A02:265'
p1943
aS'HLA-A02:266'
p1944
aS'HLA-A03:01'
p1945
aS'HLA-A03:02'
p1946
aS'HLA-A03:04'
p1947
aS'HLA-A03:05'
p1948
aS'HLA-A03:06'
p1949
aS'HLA-A03:07'
p1950
aS'HLA-A03:08'
p1951
aS'HLA-A03:09'
p1952
aS'HLA-A03:10'
p1953
aS'HLA-A03:12'
p1954
aS'HLA-A03:13'
p1955
aS'HLA-A03:14'
p1956
aS'HLA-A03:15'
p1957
aS'HLA-A03:16'
p1958
aS'HLA-A03:17'
p1959
aS'HLA-A03:18'
p1960
aS'HLA-A03:19'
p1961
aS'HLA-A03:20'
p1962
aS'HLA-A03:22'
p1963
aS'HLA-A03:23'
p1964
aS'HLA-A03:24'
p1965
aS'HLA-A03:25'
p1966
aS'HLA-A03:26'
p1967
aS'HLA-A03:27'
p1968
aS'HLA-A03:28'
p1969
aS'HLA-A03:29'
p1970
aS'HLA-A03:30'
p1971
aS'HLA-A03:31'
p1972
aS'HLA-A03:32'
p1973
aS'HLA-A03:33'
p1974
aS'HLA-A03:34'
p1975
aS'HLA-A03:35'
p1976
aS'HLA-A03:37'
p1977
aS'HLA-A03:38'
p1978
aS'HLA-A03:39'
p1979
aS'HLA-A03:40'
p1980
aS'HLA-A03:41'
p1981
aS'HLA-A03:42'
p1982
aS'HLA-A03:43'
p1983
aS'HLA-A03:44'
p1984
aS'HLA-A03:45'
p1985
aS'HLA-A03:46'
p1986
aS'HLA-A03:47'
p1987
aS'HLA-A03:48'
p1988
aS'HLA-A03:49'
p1989
aS'HLA-A03:50'
p1990
aS'HLA-A03:51'
p1991
aS'HLA-A03:52'
p1992
aS'HLA-A03:53'
p1993
aS'HLA-A03:54'
p1994
aS'HLA-A03:55'
p1995
aS'HLA-A03:56'
p1996
aS'HLA-A03:57'
p1997
aS'HLA-A03:58'
p1998
aS'HLA-A03:59'
p1999
aS'HLA-A03:60'
p2000
aS'HLA-A03:61'
p2001
aS'HLA-A03:62'
p2002
aS'HLA-A03:63'
p2003
aS'HLA-A03:64'
p2004
aS'HLA-A03:65'
p2005
aS'HLA-A03:66'
p2006
aS'HLA-A03:67'
p2007
aS'HLA-A03:70'
p2008
aS'HLA-A03:71'
p2009
aS'HLA-A03:72'
p2010
aS'HLA-A03:73'
p2011
aS'HLA-A03:74'
p2012
aS'HLA-A03:75'
p2013
aS'HLA-A03:76'
p2014
aS'HLA-A03:77'
p2015
aS'HLA-A03:78'
p2016
aS'HLA-A03:79'
p2017
aS'HLA-A03:80'
p2018
aS'HLA-A03:81'
p2019
aS'HLA-A03:82'
p2020
aS'HLA-A11:01'
p2021
aS'HLA-A11:02'
p2022
aS'HLA-A11:03'
p2023
aS'HLA-A11:04'
p2024
aS'HLA-A11:05'
p2025
aS'HLA-A11:06'
p2026
aS'HLA-A11:07'
p2027
aS'HLA-A11:08'
p2028
aS'HLA-A11:09'
p2029
aS'HLA-A11:10'
p2030
aS'HLA-A11:11'
p2031
aS'HLA-A11:12'
p2032
aS'HLA-A11:13'
p2033
aS'HLA-A11:14'
p2034
aS'HLA-A11:15'
p2035
aS'HLA-A11:16'
p2036
aS'HLA-A11:17'
p2037
aS'HLA-A11:18'
p2038
aS'HLA-A11:19'
p2039
aS'HLA-A11:20'
p2040
aS'HLA-A11:22'
p2041
aS'HLA-A11:23'
p2042
aS'HLA-A11:24'
p2043
aS'HLA-A11:25'
p2044
aS'HLA-A11:26'
p2045
aS'HLA-A11:27'
p2046
aS'HLA-A11:29'
p2047
aS'HLA-A11:30'
p2048
aS'HLA-A11:31'
p2049
aS'HLA-A11:32'
p2050
aS'HLA-A11:33'
p2051
aS'HLA-A11:34'
p2052
aS'HLA-A11:35'
p2053
aS'HLA-A11:36'
p2054
aS'HLA-A11:37'
p2055
aS'HLA-A11:38'
p2056
aS'HLA-A11:39'
p2057
aS'HLA-A11:40'
p2058
aS'HLA-A11:41'
p2059
aS'HLA-A11:42'
p2060
aS'HLA-A11:43'
p2061
aS'HLA-A11:44'
p2062
aS'HLA-A11:45'
p2063
aS'HLA-A11:46'
p2064
aS'HLA-A11:47'
p2065
aS'HLA-A11:48'
p2066
aS'HLA-A11:49'
p2067
aS'HLA-A11:51'
p2068
aS'HLA-A11:53'
p2069
aS'HLA-A11:54'
p2070
aS'HLA-A11:55'
p2071
aS'HLA-A11:56'
p2072
aS'HLA-A11:57'
p2073
aS'HLA-A11:58'
p2074
aS'HLA-A11:59'
p2075
aS'HLA-A11:60'
p2076
aS'HLA-A11:61'
p2077
aS'HLA-A11:62'
p2078
aS'HLA-A11:63'
p2079
aS'HLA-A11:64'
p2080
aS'HLA-A23:01'
p2081
aS'HLA-A23:02'
p2082
aS'HLA-A23:03'
p2083
aS'HLA-A23:04'
p2084
aS'HLA-A23:05'
p2085
aS'HLA-A23:06'
p2086
aS'HLA-A23:09'
p2087
aS'HLA-A23:10'
p2088
aS'HLA-A23:12'
p2089
aS'HLA-A23:13'
p2090
aS'HLA-A23:14'
p2091
aS'HLA-A23:15'
p2092
aS'HLA-A23:16'
p2093
aS'HLA-A23:17'
p2094
aS'HLA-A23:18'
p2095
aS'HLA-A23:20'
p2096
aS'HLA-A23:21'
p2097
aS'HLA-A23:22'
p2098
aS'HLA-A23:23'
p2099
aS'HLA-A23:24'
p2100
aS'HLA-A23:25'
p2101
aS'HLA-A23:26'
p2102
aS'HLA-A24:02'
p2103
aS'HLA-A24:03'
p2104
aS'HLA-A24:04'
p2105
aS'HLA-A24:05'
p2106
aS'HLA-A24:06'
p2107
aS'HLA-A24:07'
p2108
aS'HLA-A24:08'
p2109
aS'HLA-A24:10'
p2110
aS'HLA-A24:13'
p2111
aS'HLA-A24:14'
p2112
aS'HLA-A24:15'
p2113
aS'HLA-A24:17'
p2114
aS'HLA-A24:18'
p2115
aS'HLA-A24:19'
p2116
aS'HLA-A24:20'
p2117
aS'HLA-A24:21'
p2118
aS'HLA-A24:22'
p2119
aS'HLA-A24:23'
p2120
aS'HLA-A24:24'
p2121
aS'HLA-A24:25'
p2122
aS'HLA-A24:26'
p2123
aS'HLA-A24:27'
p2124
aS'HLA-A24:28'
p2125
aS'HLA-A24:29'
p2126
aS'HLA-A24:30'
p2127
aS'HLA-A24:31'
p2128
aS'HLA-A24:32'
p2129
aS'HLA-A24:33'
p2130
aS'HLA-A24:34'
p2131
aS'HLA-A24:35'
p2132
aS'HLA-A24:37'
p2133
aS'HLA-A24:38'
p2134
aS'HLA-A24:39'
p2135
aS'HLA-A24:41'
p2136
aS'HLA-A24:42'
p2137
aS'HLA-A24:43'
p2138
aS'HLA-A24:44'
p2139
aS'HLA-A24:46'
p2140
aS'HLA-A24:47'
p2141
aS'HLA-A24:49'
p2142
aS'HLA-A24:50'
p2143
aS'HLA-A24:51'
p2144
aS'HLA-A24:52'
p2145
aS'HLA-A24:53'
p2146
aS'HLA-A24:54'
p2147
aS'HLA-A24:55'
p2148
aS'HLA-A24:56'
p2149
aS'HLA-A24:57'
p2150
aS'HLA-A24:58'
p2151
aS'HLA-A24:59'
p2152
aS'HLA-A24:61'
p2153
aS'HLA-A24:62'
p2154
aS'HLA-A24:63'
p2155
aS'HLA-A24:64'
p2156
aS'HLA-A24:66'
p2157
aS'HLA-A24:67'
p2158
aS'HLA-A24:68'
p2159
aS'HLA-A24:69'
p2160
aS'HLA-A24:70'
p2161
aS'HLA-A24:71'
p2162
aS'HLA-A24:72'
p2163
aS'HLA-A24:73'
p2164
aS'HLA-A24:74'
p2165
aS'HLA-A24:75'
p2166
aS'HLA-A24:76'
p2167
aS'HLA-A24:77'
p2168
aS'HLA-A24:78'
p2169
aS'HLA-A24:79'
p2170
aS'HLA-A24:80'
p2171
aS'HLA-A24:81'
p2172
aS'HLA-A24:82'
p2173
aS'HLA-A24:85'
p2174
aS'HLA-A24:87'
p2175
aS'HLA-A24:88'
p2176
aS'HLA-A24:89'
p2177
aS'HLA-A24:91'
p2178
aS'HLA-A24:92'
p2179
aS'HLA-A24:93'
p2180
aS'HLA-A24:94'
p2181
aS'HLA-A24:95'
p2182
aS'HLA-A24:96'
p2183
aS'HLA-A24:97'
p2184
aS'HLA-A24:98'
p2185
aS'HLA-A24:99'
p2186
aS'HLA-A24:100'
p2187
aS'HLA-A24:101'
p2188
aS'HLA-A24:102'
p2189
aS'HLA-A24:103'
p2190
aS'HLA-A24:104'
p2191
aS'HLA-A24:105'
p2192
aS'HLA-A24:106'
p2193
aS'HLA-A24:107'
p2194
aS'HLA-A24:108'
p2195
aS'HLA-A24:109'
p2196
aS'HLA-A24:110'
p2197
aS'HLA-A24:111'
p2198
aS'HLA-A24:112'
p2199
aS'HLA-A24:113'
p2200
aS'HLA-A24:114'
p2201
aS'HLA-A24:115'
p2202
aS'HLA-A24:116'
p2203
aS'HLA-A24:117'
p2204
aS'HLA-A24:118'
p2205
aS'HLA-A24:119'
p2206
aS'HLA-A24:120'
p2207
aS'HLA-A24:121'
p2208
aS'HLA-A24:122'
p2209
aS'HLA-A24:123'
p2210
aS'HLA-A24:124'
p2211
aS'HLA-A24:125'
p2212
aS'HLA-A24:126'
p2213
aS'HLA-A24:127'
p2214
aS'HLA-A24:128'
p2215
aS'HLA-A24:129'
p2216
aS'HLA-A24:130'
p2217
aS'HLA-A24:131'
p2218
aS'HLA-A24:133'
p2219
aS'HLA-A24:134'
p2220
aS'HLA-A24:135'
p2221
aS'HLA-A24:136'
p2222
aS'HLA-A24:137'
p2223
aS'HLA-A24:138'
p2224
aS'HLA-A24:139'
p2225
aS'HLA-A24:140'
p2226
aS'HLA-A24:141'
p2227
aS'HLA-A24:142'
p2228
aS'HLA-A24:143'
p2229
aS'HLA-A24:144'
p2230
aS'HLA-A25:01'
p2231
aS'HLA-A25:02'
p2232
aS'HLA-A25:03'
p2233
aS'HLA-A25:04'
p2234
aS'HLA-A25:05'
p2235
aS'HLA-A25:06'
p2236
aS'HLA-A25:07'
p2237
aS'HLA-A25:08'
p2238
aS'HLA-A25:09'
p2239
aS'HLA-A25:10'
p2240
aS'HLA-A25:11'
p2241
aS'HLA-A25:13'
p2242
aS'HLA-A26:01'
p2243
aS'HLA-A26:02'
p2244
aS'HLA-A26:03'
p2245
aS'HLA-A26:04'
p2246
aS'HLA-A26:05'
p2247
aS'HLA-A26:06'
p2248
aS'HLA-A26:07'
p2249
aS'HLA-A26:08'
p2250
aS'HLA-A26:09'
p2251
aS'HLA-A26:10'
p2252
aS'HLA-A26:12'
p2253
aS'HLA-A26:13'
p2254
aS'HLA-A26:14'
p2255
aS'HLA-A26:15'
p2256
aS'HLA-A26:16'
p2257
aS'HLA-A26:17'
p2258
aS'HLA-A26:18'
p2259
aS'HLA-A26:19'
p2260
aS'HLA-A26:20'
p2261
aS'HLA-A26:21'
p2262
aS'HLA-A26:22'
p2263
aS'HLA-A26:23'
p2264
aS'HLA-A26:24'
p2265
aS'HLA-A26:26'
p2266
aS'HLA-A26:27'
p2267
aS'HLA-A26:28'
p2268
aS'HLA-A26:29'
p2269
aS'HLA-A26:30'
p2270
aS'HLA-A26:31'
p2271
aS'HLA-A26:32'
p2272
aS'HLA-A26:33'
p2273
aS'HLA-A26:34'
p2274
aS'HLA-A26:35'
p2275
aS'HLA-A26:36'
p2276
aS'HLA-A26:37'
p2277
aS'HLA-A26:38'
p2278
aS'HLA-A26:39'
p2279
aS'HLA-A26:40'
p2280
aS'HLA-A26:41'
p2281
aS'HLA-A26:42'
p2282
aS'HLA-A26:43'
p2283
aS'HLA-A26:45'
p2284
aS'HLA-A26:46'
p2285
aS'HLA-A26:47'
p2286
aS'HLA-A26:48'
p2287
aS'HLA-A26:49'
p2288
aS'HLA-A26:50'
p2289
aS'HLA-A29:01'
p2290
aS'HLA-A29:02'
p2291
aS'HLA-A29:03'
p2292
aS'HLA-A29:04'
p2293
aS'HLA-A29:05'
p2294
aS'HLA-A29:06'
p2295
aS'HLA-A29:07'
p2296
aS'HLA-A29:09'
p2297
aS'HLA-A29:10'
p2298
aS'HLA-A29:11'
p2299
aS'HLA-A29:12'
p2300
aS'HLA-A29:13'
p2301
aS'HLA-A29:14'
p2302
aS'HLA-A29:15'
p2303
aS'HLA-A29:16'
p2304
aS'HLA-A29:17'
p2305
aS'HLA-A29:18'
p2306
aS'HLA-A29:19'
p2307
aS'HLA-A29:20'
p2308
aS'HLA-A29:21'
p2309
aS'HLA-A29:22'
p2310
aS'HLA-A30:01'
p2311
aS'HLA-A30:02'
p2312
aS'HLA-A30:03'
p2313
aS'HLA-A30:04'
p2314
aS'HLA-A30:06'
p2315
aS'HLA-A30:07'
p2316
aS'HLA-A30:08'
p2317
aS'HLA-A30:09'
p2318
aS'HLA-A30:10'
p2319
aS'HLA-A30:11'
p2320
aS'HLA-A30:12'
p2321
aS'HLA-A30:13'
p2322
aS'HLA-A30:15'
p2323
aS'HLA-A30:16'
p2324
aS'HLA-A30:17'
p2325
aS'HLA-A30:18'
p2326
aS'HLA-A30:19'
p2327
aS'HLA-A30:20'
p2328
aS'HLA-A30:22'
p2329
aS'HLA-A30:23'
p2330
aS'HLA-A30:24'
p2331
aS'HLA-A30:25'
p2332
aS'HLA-A30:26'
p2333
aS'HLA-A30:28'
p2334
aS'HLA-A30:29'
p2335
aS'HLA-A30:30'
p2336
aS'HLA-A30:31'
p2337
aS'HLA-A30:32'
p2338
aS'HLA-A30:33'
p2339
aS'HLA-A30:34'
p2340
aS'HLA-A30:35'
p2341
aS'HLA-A30:36'
p2342
aS'HLA-A30:37'
p2343
aS'HLA-A30:38'
p2344
aS'HLA-A30:39'
p2345
aS'HLA-A30:40'
p2346
aS'HLA-A30:41'
p2347
aS'HLA-A31:01'
p2348
aS'HLA-A31:02'
p2349
aS'HLA-A31:03'
p2350
aS'HLA-A31:04'
p2351
aS'HLA-A31:05'
p2352
aS'HLA-A31:06'
p2353
aS'HLA-A31:07'
p2354
aS'HLA-A31:08'
p2355
aS'HLA-A31:09'
p2356
aS'HLA-A31:10'
p2357
aS'HLA-A31:11'
p2358
aS'HLA-A31:12'
p2359
aS'HLA-A31:13'
p2360
aS'HLA-A31:15'
p2361
aS'HLA-A31:16'
p2362
aS'HLA-A31:17'
p2363
aS'HLA-A31:18'
p2364
aS'HLA-A31:19'
p2365
aS'HLA-A31:20'
p2366
aS'HLA-A31:21'
p2367
aS'HLA-A31:22'
p2368
aS'HLA-A31:23'
p2369
aS'HLA-A31:24'
p2370
aS'HLA-A31:25'
p2371
aS'HLA-A31:26'
p2372
aS'HLA-A31:27'
p2373
aS'HLA-A31:28'
p2374
aS'HLA-A31:29'
p2375
aS'HLA-A31:30'
p2376
aS'HLA-A31:31'
p2377
aS'HLA-A31:32'
p2378
aS'HLA-A31:33'
p2379
aS'HLA-A31:34'
p2380
aS'HLA-A31:35'
p2381
aS'HLA-A31:36'
p2382
aS'HLA-A31:37'
p2383
aS'HLA-A32:01'
p2384
aS'HLA-A32:02'
p2385
aS'HLA-A32:03'
p2386
aS'HLA-A32:04'
p2387
aS'HLA-A32:05'
p2388
aS'HLA-A32:06'
p2389
aS'HLA-A32:07'
p2390
aS'HLA-A32:08'
p2391
aS'HLA-A32:09'
p2392
aS'HLA-A32:10'
p2393
aS'HLA-A32:12'
p2394
aS'HLA-A32:13'
p2395
aS'HLA-A32:14'
p2396
aS'HLA-A32:15'
p2397
aS'HLA-A32:16'
p2398
aS'HLA-A32:17'
p2399
aS'HLA-A32:18'
p2400
aS'HLA-A32:20'
p2401
aS'HLA-A32:21'
p2402
aS'HLA-A32:22'
p2403
aS'HLA-A32:23'
p2404
aS'HLA-A32:24'
p2405
aS'HLA-A32:25'
p2406
aS'HLA-A33:01'
p2407
aS'HLA-A33:03'
p2408
aS'HLA-A33:04'
p2409
aS'HLA-A33:05'
p2410
aS'HLA-A33:06'
p2411
aS'HLA-A33:07'
p2412
aS'HLA-A33:08'
p2413
aS'HLA-A33:09'
p2414
aS'HLA-A33:10'
p2415
aS'HLA-A33:11'
p2416
aS'HLA-A33:12'
p2417
aS'HLA-A33:13'
p2418
aS'HLA-A33:14'
p2419
aS'HLA-A33:15'
p2420
aS'HLA-A33:16'
p2421
aS'HLA-A33:17'
p2422
aS'HLA-A33:18'
p2423
aS'HLA-A33:19'
p2424
aS'HLA-A33:20'
p2425
aS'HLA-A33:21'
p2426
aS'HLA-A33:22'
p2427
aS'HLA-A33:23'
p2428
aS'HLA-A33:24'
p2429
aS'HLA-A33:25'
p2430
aS'HLA-A33:26'
p2431
aS'HLA-A33:27'
p2432
aS'HLA-A33:28'
p2433
aS'HLA-A33:29'
p2434
aS'HLA-A33:30'
p2435
aS'HLA-A33:31'
p2436
aS'HLA-A34:01'
p2437
aS'HLA-A34:02'
p2438
aS'HLA-A34:03'
p2439
aS'HLA-A34:04'
p2440
aS'HLA-A34:05'
p2441
aS'HLA-A34:06'
p2442
aS'HLA-A34:07'
p2443
aS'HLA-A34:08'
p2444
aS'HLA-A36:01'
p2445
aS'HLA-A36:02'
p2446
aS'HLA-A36:03'
p2447
aS'HLA-A36:04'
p2448
aS'HLA-A36:05'
p2449
aS'HLA-A43:01'
p2450
aS'HLA-A66:01'
p2451
aS'HLA-A66:02'
p2452
aS'HLA-A66:03'
p2453
aS'HLA-A66:04'
p2454
aS'HLA-A66:05'
p2455
aS'HLA-A66:06'
p2456
aS'HLA-A66:07'
p2457
aS'HLA-A66:08'
p2458
aS'HLA-A66:09'
p2459
aS'HLA-A66:10'
p2460
aS'HLA-A66:11'
p2461
aS'HLA-A66:12'
p2462
aS'HLA-A66:13'
p2463
aS'HLA-A66:14'
p2464
aS'HLA-A66:15'
p2465
aS'HLA-A68:01'
p2466
aS'HLA-A68:02'
p2467
aS'HLA-A68:03'
p2468
aS'HLA-A68:04'
p2469
aS'HLA-A68:05'
p2470
aS'HLA-A68:06'
p2471
aS'HLA-A68:07'
p2472
aS'HLA-A68:08'
p2473
aS'HLA-A68:09'
p2474
aS'HLA-A68:10'
p2475
aS'HLA-A68:12'
p2476
aS'HLA-A68:13'
p2477
aS'HLA-A68:14'
p2478
aS'HLA-A68:15'
p2479
aS'HLA-A68:16'
p2480
aS'HLA-A68:17'
p2481
aS'HLA-A68:19'
p2482
aS'HLA-A68:20'
p2483
aS'HLA-A68:21'
p2484
aS'HLA-A68:22'
p2485
aS'HLA-A68:23'
p2486
aS'HLA-A68:24'
p2487
aS'HLA-A68:25'
p2488
aS'HLA-A68:26'
p2489
aS'HLA-A68:27'
p2490
aS'HLA-A68:28'
p2491
aS'HLA-A68:29'
p2492
aS'HLA-A68:30'
p2493
aS'HLA-A68:31'
p2494
aS'HLA-A68:32'
p2495
aS'HLA-A68:33'
p2496
aS'HLA-A68:34'
p2497
aS'HLA-A68:35'
p2498
aS'HLA-A68:36'
p2499
aS'HLA-A68:37'
p2500
aS'HLA-A68:38'
p2501
aS'HLA-A68:39'
p2502
aS'HLA-A68:40'
p2503
aS'HLA-A68:41'
p2504
aS'HLA-A68:42'
p2505
aS'HLA-A68:43'
p2506
aS'HLA-A68:44'
p2507
aS'HLA-A68:45'
p2508
aS'HLA-A68:46'
p2509
aS'HLA-A68:47'
p2510
aS'HLA-A68:48'
p2511
aS'HLA-A68:50'
p2512
aS'HLA-A68:51'
p2513
aS'HLA-A68:52'
p2514
aS'HLA-A68:53'
p2515
aS'HLA-A68:54'
p2516
aS'HLA-A69:01'
p2517
aS'HLA-A74:01'
p2518
aS'HLA-A74:02'
p2519
aS'HLA-A74:03'
p2520
aS'HLA-A74:04'
p2521
aS'HLA-A74:05'
p2522
aS'HLA-A74:06'
p2523
aS'HLA-A74:07'
p2524
aS'HLA-A74:08'
p2525
aS'HLA-A74:09'
p2526
aS'HLA-A74:10'
p2527
aS'HLA-A74:11'
p2528
aS'HLA-A74:13'
p2529
aS'HLA-A80:01'
p2530
aS'HLA-A80:02'
p2531
aS'HLA-B07:02'
p2532
aS'HLA-B07:03'
p2533
aS'HLA-B07:04'
p2534
aS'HLA-B07:05'
p2535
aS'HLA-B07:06'
p2536
aS'HLA-B07:07'
p2537
aS'HLA-B07:08'
p2538
aS'HLA-B07:09'
p2539
aS'HLA-B07:10'
p2540
aS'HLA-B07:11'
p2541
aS'HLA-B07:12'
p2542
aS'HLA-B07:13'
p2543
aS'HLA-B07:14'
p2544
aS'HLA-B07:15'
p2545
aS'HLA-B07:16'
p2546
aS'HLA-B07:17'
p2547
aS'HLA-B07:18'
p2548
aS'HLA-B07:19'
p2549
aS'HLA-B07:20'
p2550
aS'HLA-B07:21'
p2551
aS'HLA-B07:22'
p2552
aS'HLA-B07:23'
p2553
aS'HLA-B07:24'
p2554
aS'HLA-B07:25'
p2555
aS'HLA-B07:26'
p2556
aS'HLA-B07:27'
p2557
aS'HLA-B07:28'
p2558
aS'HLA-B07:29'
p2559
aS'HLA-B07:30'
p2560
aS'HLA-B07:31'
p2561
aS'HLA-B07:32'
p2562
aS'HLA-B07:33'
p2563
aS'HLA-B07:34'
p2564
aS'HLA-B07:35'
p2565
aS'HLA-B07:36'
p2566
aS'HLA-B07:37'
p2567
aS'HLA-B07:38'
p2568
aS'HLA-B07:39'
p2569
aS'HLA-B07:40'
p2570
aS'HLA-B07:41'
p2571
aS'HLA-B07:42'
p2572
aS'HLA-B07:43'
p2573
aS'HLA-B07:44'
p2574
aS'HLA-B07:45'
p2575
aS'HLA-B07:46'
p2576
aS'HLA-B07:47'
p2577
aS'HLA-B07:48'
p2578
aS'HLA-B07:50'
p2579
aS'HLA-B07:51'
p2580
aS'HLA-B07:52'
p2581
aS'HLA-B07:53'
p2582
aS'HLA-B07:54'
p2583
aS'HLA-B07:55'
p2584
aS'HLA-B07:56'
p2585
aS'HLA-B07:57'
p2586
aS'HLA-B07:58'
p2587
aS'HLA-B07:59'
p2588
aS'HLA-B07:60'
p2589
aS'HLA-B07:61'
p2590
aS'HLA-B07:62'
p2591
aS'HLA-B07:63'
p2592
aS'HLA-B07:64'
p2593
aS'HLA-B07:65'
p2594
aS'HLA-B07:66'
p2595
aS'HLA-B07:68'
p2596
aS'HLA-B07:69'
p2597
aS'HLA-B07:70'
p2598
aS'HLA-B07:71'
p2599
aS'HLA-B07:72'
p2600
aS'HLA-B07:73'
p2601
aS'HLA-B07:74'
p2602
aS'HLA-B07:75'
p2603
aS'HLA-B07:76'
p2604
aS'HLA-B07:77'
p2605
aS'HLA-B07:78'
p2606
aS'HLA-B07:79'
p2607
aS'HLA-B07:80'
p2608
aS'HLA-B07:81'
p2609
aS'HLA-B07:82'
p2610
aS'HLA-B07:83'
p2611
aS'HLA-B07:84'
p2612
aS'HLA-B07:85'
p2613
aS'HLA-B07:86'
p2614
aS'HLA-B07:87'
p2615
aS'HLA-B07:88'
p2616
aS'HLA-B07:89'
p2617
aS'HLA-B07:90'
p2618
aS'HLA-B07:91'
p2619
aS'HLA-B07:92'
p2620
aS'HLA-B07:93'
p2621
aS'HLA-B07:94'
p2622
aS'HLA-B07:95'
p2623
aS'HLA-B07:96'
p2624
aS'HLA-B07:97'
p2625
aS'HLA-B07:98'
p2626
aS'HLA-B07:99'
p2627
aS'HLA-B07:100'
p2628
aS'HLA-B07:101'
p2629
aS'HLA-B07:102'
p2630
aS'HLA-B07:103'
p2631
aS'HLA-B07:104'
p2632
aS'HLA-B07:105'
p2633
aS'HLA-B07:106'
p2634
aS'HLA-B07:107'
p2635
aS'HLA-B07:108'
p2636
aS'HLA-B07:109'
p2637
aS'HLA-B07:110'
p2638
aS'HLA-B07:112'
p2639
aS'HLA-B07:113'
p2640
aS'HLA-B07:114'
p2641
aS'HLA-B07:115'
p2642
aS'HLA-B08:01'
p2643
aS'HLA-B08:02'
p2644
aS'HLA-B08:03'
p2645
aS'HLA-B08:04'
p2646
aS'HLA-B08:05'
p2647
aS'HLA-B08:07'
p2648
aS'HLA-B08:09'
p2649
aS'HLA-B08:10'
p2650
aS'HLA-B08:11'
p2651
aS'HLA-B08:12'
p2652
aS'HLA-B08:13'
p2653
aS'HLA-B08:14'
p2654
aS'HLA-B08:15'
p2655
aS'HLA-B08:16'
p2656
aS'HLA-B08:17'
p2657
aS'HLA-B08:18'
p2658
aS'HLA-B08:20'
p2659
aS'HLA-B08:21'
p2660
aS'HLA-B08:22'
p2661
aS'HLA-B08:23'
p2662
aS'HLA-B08:24'
p2663
aS'HLA-B08:25'
p2664
aS'HLA-B08:26'
p2665
aS'HLA-B08:27'
p2666
aS'HLA-B08:28'
p2667
aS'HLA-B08:29'
p2668
aS'HLA-B08:31'
p2669
aS'HLA-B08:32'
p2670
aS'HLA-B08:33'
p2671
aS'HLA-B08:34'
p2672
aS'HLA-B08:35'
p2673
aS'HLA-B08:36'
p2674
aS'HLA-B08:37'
p2675
aS'HLA-B08:38'
p2676
aS'HLA-B08:39'
p2677
aS'HLA-B08:40'
p2678
aS'HLA-B08:41'
p2679
aS'HLA-B08:42'
p2680
aS'HLA-B08:43'
p2681
aS'HLA-B08:44'
p2682
aS'HLA-B08:45'
p2683
aS'HLA-B08:46'
p2684
aS'HLA-B08:47'
p2685
aS'HLA-B08:48'
p2686
aS'HLA-B08:49'
p2687
aS'HLA-B08:50'
p2688
aS'HLA-B08:51'
p2689
aS'HLA-B08:52'
p2690
aS'HLA-B08:53'
p2691
aS'HLA-B08:54'
p2692
aS'HLA-B08:55'
p2693
aS'HLA-B08:56'
p2694
aS'HLA-B08:57'
p2695
aS'HLA-B08:58'
p2696
aS'HLA-B08:59'
p2697
aS'HLA-B08:60'
p2698
aS'HLA-B08:61'
p2699
aS'HLA-B08:62'
p2700
aS'HLA-B13:01'
p2701
aS'HLA-B13:02'
p2702
aS'HLA-B13:03'
p2703
aS'HLA-B13:04'
p2704
aS'HLA-B13:06'
p2705
aS'HLA-B13:09'
p2706
aS'HLA-B13:10'
p2707
aS'HLA-B13:11'
p2708
aS'HLA-B13:12'
p2709
aS'HLA-B13:13'
p2710
aS'HLA-B13:14'
p2711
aS'HLA-B13:15'
p2712
aS'HLA-B13:16'
p2713
aS'HLA-B13:17'
p2714
aS'HLA-B13:18'
p2715
aS'HLA-B13:19'
p2716
aS'HLA-B13:20'
p2717
aS'HLA-B13:21'
p2718
aS'HLA-B13:22'
p2719
aS'HLA-B13:23'
p2720
aS'HLA-B13:25'
p2721
aS'HLA-B13:26'
p2722
aS'HLA-B13:27'
p2723
aS'HLA-B13:28'
p2724
aS'HLA-B13:29'
p2725
aS'HLA-B13:30'
p2726
aS'HLA-B13:31'
p2727
aS'HLA-B13:32'
p2728
aS'HLA-B13:33'
p2729
aS'HLA-B13:34'
p2730
aS'HLA-B13:35'
p2731
aS'HLA-B13:36'
p2732
aS'HLA-B13:37'
p2733
aS'HLA-B13:38'
p2734
aS'HLA-B13:39'
p2735
aS'HLA-B14:01'
p2736
aS'HLA-B14:02'
p2737
aS'HLA-B14:03'
p2738
aS'HLA-B14:04'
p2739
aS'HLA-B14:05'
p2740
aS'HLA-B14:06'
p2741
aS'HLA-B14:08'
p2742
aS'HLA-B14:09'
p2743
aS'HLA-B14:10'
p2744
aS'HLA-B14:11'
p2745
aS'HLA-B14:12'
p2746
aS'HLA-B14:13'
p2747
aS'HLA-B14:14'
p2748
aS'HLA-B14:15'
p2749
aS'HLA-B14:16'
p2750
aS'HLA-B14:17'
p2751
aS'HLA-B14:18'
p2752
aS'HLA-B15:01'
p2753
aS'HLA-B15:02'
p2754
aS'HLA-B15:03'
p2755
aS'HLA-B15:04'
p2756
aS'HLA-B15:05'
p2757
aS'HLA-B15:06'
p2758
aS'HLA-B15:07'
p2759
aS'HLA-B15:08'
p2760
aS'HLA-B15:09'
p2761
aS'HLA-B15:10'
p2762
aS'HLA-B15:11'
p2763
aS'HLA-B15:12'
p2764
aS'HLA-B15:13'
p2765
aS'HLA-B15:14'
p2766
aS'HLA-B15:15'
p2767
aS'HLA-B15:16'
p2768
aS'HLA-B15:17'
p2769
aS'HLA-B15:18'
p2770
aS'HLA-B15:19'
p2771
aS'HLA-B15:20'
p2772
aS'HLA-B15:21'
p2773
aS'HLA-B15:23'
p2774
aS'HLA-B15:24'
p2775
aS'HLA-B15:25'
p2776
aS'HLA-B15:27'
p2777
aS'HLA-B15:28'
p2778
aS'HLA-B15:29'
p2779
aS'HLA-B15:30'
p2780
aS'HLA-B15:31'
p2781
aS'HLA-B15:32'
p2782
aS'HLA-B15:33'
p2783
aS'HLA-B15:34'
p2784
aS'HLA-B15:35'
p2785
aS'HLA-B15:36'
p2786
aS'HLA-B15:37'
p2787
aS'HLA-B15:38'
p2788
aS'HLA-B15:39'
p2789
aS'HLA-B15:40'
p2790
aS'HLA-B15:42'
p2791
aS'HLA-B15:43'
p2792
aS'HLA-B15:44'
p2793
aS'HLA-B15:45'
p2794
aS'HLA-B15:46'
p2795
aS'HLA-B15:47'
p2796
aS'HLA-B15:48'
p2797
aS'HLA-B15:49'
p2798
aS'HLA-B15:50'
p2799
aS'HLA-B15:51'
p2800
aS'HLA-B15:52'
p2801
aS'HLA-B15:53'
p2802
aS'HLA-B15:54'
p2803
aS'HLA-B15:55'
p2804
aS'HLA-B15:56'
p2805
aS'HLA-B15:57'
p2806
aS'HLA-B15:58'
p2807
aS'HLA-B15:60'
p2808
aS'HLA-B15:61'
p2809
aS'HLA-B15:62'
p2810
aS'HLA-B15:63'
p2811
aS'HLA-B15:64'
p2812
aS'HLA-B15:65'
p2813
aS'HLA-B15:66'
p2814
aS'HLA-B15:67'
p2815
aS'HLA-B15:68'
p2816
aS'HLA-B15:69'
p2817
aS'HLA-B15:70'
p2818
aS'HLA-B15:71'
p2819
aS'HLA-B15:72'
p2820
aS'HLA-B15:73'
p2821
aS'HLA-B15:74'
p2822
aS'HLA-B15:75'
p2823
aS'HLA-B15:76'
p2824
aS'HLA-B15:77'
p2825
aS'HLA-B15:78'
p2826
aS'HLA-B15:80'
p2827
aS'HLA-B15:81'
p2828
aS'HLA-B15:82'
p2829
aS'HLA-B15:83'
p2830
aS'HLA-B15:84'
p2831
aS'HLA-B15:85'
p2832
aS'HLA-B15:86'
p2833
aS'HLA-B15:87'
p2834
aS'HLA-B15:88'
p2835
aS'HLA-B15:89'
p2836
aS'HLA-B15:90'
p2837
aS'HLA-B15:91'
p2838
aS'HLA-B15:92'
p2839
aS'HLA-B15:93'
p2840
aS'HLA-B15:95'
p2841
aS'HLA-B15:96'
p2842
aS'HLA-B15:97'
p2843
aS'HLA-B15:98'
p2844
aS'HLA-B15:99'
p2845
aS'HLA-B15:101'
p2846
aS'HLA-B15:102'
p2847
aS'HLA-B15:103'
p2848
aS'HLA-B15:104'
p2849
aS'HLA-B15:105'
p2850
aS'HLA-B15:106'
p2851
aS'HLA-B15:107'
p2852
aS'HLA-B15:108'
p2853
aS'HLA-B15:109'
p2854
aS'HLA-B15:110'
p2855
aS'HLA-B15:112'
p2856
aS'HLA-B15:113'
p2857
aS'HLA-B15:114'
p2858
aS'HLA-B15:115'
p2859
aS'HLA-B15:116'
p2860
aS'HLA-B15:117'
p2861
aS'HLA-B15:118'
p2862
aS'HLA-B15:119'
p2863
aS'HLA-B15:120'
p2864
aS'HLA-B15:121'
p2865
aS'HLA-B15:122'
p2866
aS'HLA-B15:123'
p2867
aS'HLA-B15:124'
p2868
aS'HLA-B15:125'
p2869
aS'HLA-B15:126'
p2870
aS'HLA-B15:127'
p2871
aS'HLA-B15:128'
p2872
aS'HLA-B15:129'
p2873
aS'HLA-B15:131'
p2874
aS'HLA-B15:132'
p2875
aS'HLA-B15:133'
p2876
aS'HLA-B15:134'
p2877
aS'HLA-B15:135'
p2878
aS'HLA-B15:136'
p2879
aS'HLA-B15:137'
p2880
aS'HLA-B15:138'
p2881
aS'HLA-B15:139'
p2882
aS'HLA-B15:140'
p2883
aS'HLA-B15:141'
p2884
aS'HLA-B15:142'
p2885
aS'HLA-B15:143'
p2886
aS'HLA-B15:144'
p2887
aS'HLA-B15:145'
p2888
aS'HLA-B15:146'
p2889
aS'HLA-B15:147'
p2890
aS'HLA-B15:148'
p2891
aS'HLA-B15:150'
p2892
aS'HLA-B15:151'
p2893
aS'HLA-B15:152'
p2894
aS'HLA-B15:153'
p2895
aS'HLA-B15:154'
p2896
aS'HLA-B15:155'
p2897
aS'HLA-B15:156'
p2898
aS'HLA-B15:157'
p2899
aS'HLA-B15:158'
p2900
aS'HLA-B15:159'
p2901
aS'HLA-B15:160'
p2902
aS'HLA-B15:161'
p2903
aS'HLA-B15:162'
p2904
aS'HLA-B15:163'
p2905
aS'HLA-B15:164'
p2906
aS'HLA-B15:165'
p2907
aS'HLA-B15:166'
p2908
aS'HLA-B15:167'
p2909
aS'HLA-B15:168'
p2910
aS'HLA-B15:169'
p2911
aS'HLA-B15:170'
p2912
aS'HLA-B15:171'
p2913
aS'HLA-B15:172'
p2914
aS'HLA-B15:173'
p2915
aS'HLA-B15:174'
p2916
aS'HLA-B15:175'
p2917
aS'HLA-B15:176'
p2918
aS'HLA-B15:177'
p2919
aS'HLA-B15:178'
p2920
aS'HLA-B15:179'
p2921
aS'HLA-B15:180'
p2922
aS'HLA-B15:183'
p2923
aS'HLA-B15:184'
p2924
aS'HLA-B15:185'
p2925
aS'HLA-B15:186'
p2926
aS'HLA-B15:187'
p2927
aS'HLA-B15:188'
p2928
aS'HLA-B15:189'
p2929
aS'HLA-B15:191'
p2930
aS'HLA-B15:192'
p2931
aS'HLA-B15:193'
p2932
aS'HLA-B15:194'
p2933
aS'HLA-B15:195'
p2934
aS'HLA-B15:196'
p2935
aS'HLA-B15:197'
p2936
aS'HLA-B15:198'
p2937
aS'HLA-B15:199'
p2938
aS'HLA-B15:200'
p2939
aS'HLA-B15:201'
p2940
aS'HLA-B15:202'
p2941
aS'HLA-B18:01'
p2942
aS'HLA-B18:02'
p2943
aS'HLA-B18:03'
p2944
aS'HLA-B18:04'
p2945
aS'HLA-B18:05'
p2946
aS'HLA-B18:06'
p2947
aS'HLA-B18:07'
p2948
aS'HLA-B18:08'
p2949
aS'HLA-B18:09'
p2950
aS'HLA-B18:10'
p2951
aS'HLA-B18:11'
p2952
aS'HLA-B18:12'
p2953
aS'HLA-B18:13'
p2954
aS'HLA-B18:14'
p2955
aS'HLA-B18:15'
p2956
aS'HLA-B18:18'
p2957
aS'HLA-B18:19'
p2958
aS'HLA-B18:20'
p2959
aS'HLA-B18:21'
p2960
aS'HLA-B18:22'
p2961
aS'HLA-B18:24'
p2962
aS'HLA-B18:25'
p2963
aS'HLA-B18:26'
p2964
aS'HLA-B18:27'
p2965
aS'HLA-B18:28'
p2966
aS'HLA-B18:29'
p2967
aS'HLA-B18:30'
p2968
aS'HLA-B18:31'
p2969
aS'HLA-B18:32'
p2970
aS'HLA-B18:33'
p2971
aS'HLA-B18:34'
p2972
aS'HLA-B18:35'
p2973
aS'HLA-B18:36'
p2974
aS'HLA-B18:37'
p2975
aS'HLA-B18:38'
p2976
aS'HLA-B18:39'
p2977
aS'HLA-B18:40'
p2978
aS'HLA-B18:41'
p2979
aS'HLA-B18:42'
p2980
aS'HLA-B18:43'
p2981
aS'HLA-B18:44'
p2982
aS'HLA-B18:45'
p2983
aS'HLA-B18:46'
p2984
aS'HLA-B18:47'
p2985
aS'HLA-B18:48'
p2986
aS'HLA-B18:49'
p2987
aS'HLA-B18:50'
p2988
aS'HLA-B27:01'
p2989
aS'HLA-B27:02'
p2990
aS'HLA-B27:03'
p2991
aS'HLA-B27:04'
p2992
aS'HLA-B27:05'
p2993
aS'HLA-B27:06'
p2994
aS'HLA-B27:07'
p2995
aS'HLA-B27:08'
p2996
aS'HLA-B27:09'
p2997
aS'HLA-B27:10'
p2998
aS'HLA-B27:11'
p2999
aS'HLA-B27:12'
p3000
aS'HLA-B27:13'
p3001
aS'HLA-B27:14'
p3002
aS'HLA-B27:15'
p3003
aS'HLA-B27:16'
p3004
aS'HLA-B27:17'
p3005
aS'HLA-B27:18'
p3006
aS'HLA-B27:19'
p3007
aS'HLA-B27:20'
p3008
aS'HLA-B27:21'
p3009
aS'HLA-B27:23'
p3010
aS'HLA-B27:24'
p3011
aS'HLA-B27:25'
p3012
aS'HLA-B27:26'
p3013
aS'HLA-B27:27'
p3014
aS'HLA-B27:28'
p3015
aS'HLA-B27:29'
p3016
aS'HLA-B27:30'
p3017
aS'HLA-B27:31'
p3018
aS'HLA-B27:32'
p3019
aS'HLA-B27:33'
p3020
aS'HLA-B27:34'
p3021
aS'HLA-B27:35'
p3022
aS'HLA-B27:36'
p3023
aS'HLA-B27:37'
p3024
aS'HLA-B27:38'
p3025
aS'HLA-B27:39'
p3026
aS'HLA-B27:40'
p3027
aS'HLA-B27:41'
p3028
aS'HLA-B27:42'
p3029
aS'HLA-B27:43'
p3030
aS'HLA-B27:44'
p3031
aS'HLA-B27:45'
p3032
aS'HLA-B27:46'
p3033
aS'HLA-B27:47'
p3034
aS'HLA-B27:48'
p3035
aS'HLA-B27:49'
p3036
aS'HLA-B27:50'
p3037
aS'HLA-B27:51'
p3038
aS'HLA-B27:52'
p3039
aS'HLA-B27:53'
p3040
aS'HLA-B27:54'
p3041
aS'HLA-B27:55'
p3042
aS'HLA-B27:56'
p3043
aS'HLA-B27:57'
p3044
aS'HLA-B27:58'
p3045
aS'HLA-B27:60'
p3046
aS'HLA-B27:61'
p3047
aS'HLA-B27:62'
p3048
aS'HLA-B27:63'
p3049
aS'HLA-B27:67'
p3050
aS'HLA-B27:68'
p3051
aS'HLA-B27:69'
p3052
aS'HLA-B35:01'
p3053
aS'HLA-B35:02'
p3054
aS'HLA-B35:03'
p3055
aS'HLA-B35:04'
p3056
aS'HLA-B35:05'
p3057
aS'HLA-B35:06'
p3058
aS'HLA-B35:07'
p3059
aS'HLA-B35:08'
p3060
aS'HLA-B35:09'
p3061
aS'HLA-B35:10'
p3062
aS'HLA-B35:11'
p3063
aS'HLA-B35:12'
p3064
aS'HLA-B35:13'
p3065
aS'HLA-B35:14'
p3066
aS'HLA-B35:15'
p3067
aS'HLA-B35:16'
p3068
aS'HLA-B35:17'
p3069
aS'HLA-B35:18'
p3070
aS'HLA-B35:19'
p3071
aS'HLA-B35:20'
p3072
aS'HLA-B35:21'
p3073
aS'HLA-B35:22'
p3074
aS'HLA-B35:23'
p3075
aS'HLA-B35:24'
p3076
aS'HLA-B35:25'
p3077
aS'HLA-B35:26'
p3078
aS'HLA-B35:27'
p3079
aS'HLA-B35:28'
p3080
aS'HLA-B35:29'
p3081
aS'HLA-B35:30'
p3082
aS'HLA-B35:31'
p3083
aS'HLA-B35:32'
p3084
aS'HLA-B35:33'
p3085
aS'HLA-B35:34'
p3086
aS'HLA-B35:35'
p3087
aS'HLA-B35:36'
p3088
aS'HLA-B35:37'
p3089
aS'HLA-B35:38'
p3090
aS'HLA-B35:39'
p3091
aS'HLA-B35:41'
p3092
aS'HLA-B35:42'
p3093
aS'HLA-B35:43'
p3094
aS'HLA-B35:44'
p3095
aS'HLA-B35:45'
p3096
aS'HLA-B35:46'
p3097
aS'HLA-B35:47'
p3098
aS'HLA-B35:48'
p3099
aS'HLA-B35:49'
p3100
aS'HLA-B35:50'
p3101
aS'HLA-B35:51'
p3102
aS'HLA-B35:52'
p3103
aS'HLA-B35:54'
p3104
aS'HLA-B35:55'
p3105
aS'HLA-B35:56'
p3106
aS'HLA-B35:57'
p3107
aS'HLA-B35:58'
p3108
aS'HLA-B35:59'
p3109
aS'HLA-B35:60'
p3110
aS'HLA-B35:61'
p3111
aS'HLA-B35:62'
p3112
aS'HLA-B35:63'
p3113
aS'HLA-B35:64'
p3114
aS'HLA-B35:66'
p3115
aS'HLA-B35:67'
p3116
aS'HLA-B35:68'
p3117
aS'HLA-B35:69'
p3118
aS'HLA-B35:70'
p3119
aS'HLA-B35:71'
p3120
aS'HLA-B35:72'
p3121
aS'HLA-B35:74'
p3122
aS'HLA-B35:75'
p3123
aS'HLA-B35:76'
p3124
aS'HLA-B35:77'
p3125
aS'HLA-B35:78'
p3126
aS'HLA-B35:79'
p3127
aS'HLA-B35:80'
p3128
aS'HLA-B35:81'
p3129
aS'HLA-B35:82'
p3130
aS'HLA-B35:83'
p3131
aS'HLA-B35:84'
p3132
aS'HLA-B35:85'
p3133
aS'HLA-B35:86'
p3134
aS'HLA-B35:87'
p3135
aS'HLA-B35:88'
p3136
aS'HLA-B35:89'
p3137
aS'HLA-B35:90'
p3138
aS'HLA-B35:91'
p3139
aS'HLA-B35:92'
p3140
aS'HLA-B35:93'
p3141
aS'HLA-B35:94'
p3142
aS'HLA-B35:95'
p3143
aS'HLA-B35:96'
p3144
aS'HLA-B35:97'
p3145
aS'HLA-B35:98'
p3146
aS'HLA-B35:99'
p3147
aS'HLA-B35:100'
p3148
aS'HLA-B35:101'
p3149
aS'HLA-B35:102'
p3150
aS'HLA-B35:103'
p3151
aS'HLA-B35:104'
p3152
aS'HLA-B35:105'
p3153
aS'HLA-B35:106'
p3154
aS'HLA-B35:107'
p3155
aS'HLA-B35:108'
p3156
aS'HLA-B35:109'
p3157
aS'HLA-B35:110'
p3158
aS'HLA-B35:111'
p3159
aS'HLA-B35:112'
p3160
aS'HLA-B35:113'
p3161
aS'HLA-B35:114'
p3162
aS'HLA-B35:115'
p3163
aS'HLA-B35:116'
p3164
aS'HLA-B35:117'
p3165
aS'HLA-B35:118'
p3166
aS'HLA-B35:119'
p3167
aS'HLA-B35:120'
p3168
aS'HLA-B35:121'
p3169
aS'HLA-B35:122'
p3170
aS'HLA-B35:123'
p3171
aS'HLA-B35:124'
p3172
aS'HLA-B35:125'
p3173
aS'HLA-B35:126'
p3174
aS'HLA-B35:127'
p3175
aS'HLA-B35:128'
p3176
aS'HLA-B35:131'
p3177
aS'HLA-B35:132'
p3178
aS'HLA-B35:133'
p3179
aS'HLA-B35:135'
p3180
aS'HLA-B35:136'
p3181
aS'HLA-B35:137'
p3182
aS'HLA-B35:138'
p3183
aS'HLA-B35:139'
p3184
aS'HLA-B35:140'
p3185
aS'HLA-B35:141'
p3186
aS'HLA-B35:142'
p3187
aS'HLA-B35:143'
p3188
aS'HLA-B35:144'
p3189
aS'HLA-B37:01'
p3190
aS'HLA-B37:02'
p3191
aS'HLA-B37:04'
p3192
aS'HLA-B37:05'
p3193
aS'HLA-B37:06'
p3194
aS'HLA-B37:07'
p3195
aS'HLA-B37:08'
p3196
aS'HLA-B37:09'
p3197
aS'HLA-B37:10'
p3198
aS'HLA-B37:11'
p3199
aS'HLA-B37:12'
p3200
aS'HLA-B37:13'
p3201
aS'HLA-B37:14'
p3202
aS'HLA-B37:15'
p3203
aS'HLA-B37:17'
p3204
aS'HLA-B37:18'
p3205
aS'HLA-B37:19'
p3206
aS'HLA-B37:20'
p3207
aS'HLA-B37:21'
p3208
aS'HLA-B37:22'
p3209
aS'HLA-B37:23'
p3210
aS'HLA-B38:01'
p3211
aS'HLA-B38:02'
p3212
aS'HLA-B38:03'
p3213
aS'HLA-B38:04'
p3214
aS'HLA-B38:05'
p3215
aS'HLA-B38:06'
p3216
aS'HLA-B38:07'
p3217
aS'HLA-B38:08'
p3218
aS'HLA-B38:09'
p3219
aS'HLA-B38:10'
p3220
aS'HLA-B38:11'
p3221
aS'HLA-B38:12'
p3222
aS'HLA-B38:13'
p3223
aS'HLA-B38:14'
p3224
aS'HLA-B38:15'
p3225
aS'HLA-B38:16'
p3226
aS'HLA-B38:17'
p3227
aS'HLA-B38:18'
p3228
aS'HLA-B38:19'
p3229
aS'HLA-B38:20'
p3230
aS'HLA-B38:21'
p3231
aS'HLA-B38:22'
p3232
aS'HLA-B38:23'
p3233
aS'HLA-B39:01'
p3234
aS'HLA-B39:02'
p3235
aS'HLA-B39:03'
p3236
aS'HLA-B39:04'
p3237
aS'HLA-B39:05'
p3238
aS'HLA-B39:06'
p3239
aS'HLA-B39:07'
p3240
aS'HLA-B39:08'
p3241
aS'HLA-B39:09'
p3242
aS'HLA-B39:10'
p3243
aS'HLA-B39:11'
p3244
aS'HLA-B39:12'
p3245
aS'HLA-B39:13'
p3246
aS'HLA-B39:14'
p3247
aS'HLA-B39:15'
p3248
aS'HLA-B39:16'
p3249
aS'HLA-B39:17'
p3250
aS'HLA-B39:18'
p3251
aS'HLA-B39:19'
p3252
aS'HLA-B39:20'
p3253
aS'HLA-B39:22'
p3254
aS'HLA-B39:23'
p3255
aS'HLA-B39:24'
p3256
aS'HLA-B39:26'
p3257
aS'HLA-B39:27'
p3258
aS'HLA-B39:28'
p3259
aS'HLA-B39:29'
p3260
aS'HLA-B39:30'
p3261
aS'HLA-B39:31'
p3262
aS'HLA-B39:32'
p3263
aS'HLA-B39:33'
p3264
aS'HLA-B39:34'
p3265
aS'HLA-B39:35'
p3266
aS'HLA-B39:36'
p3267
aS'HLA-B39:37'
p3268
aS'HLA-B39:39'
p3269
aS'HLA-B39:41'
p3270
aS'HLA-B39:42'
p3271
aS'HLA-B39:43'
p3272
aS'HLA-B39:44'
p3273
aS'HLA-B39:45'
p3274
aS'HLA-B39:46'
p3275
aS'HLA-B39:47'
p3276
aS'HLA-B39:48'
p3277
aS'HLA-B39:49'
p3278
aS'HLA-B39:50'
p3279
aS'HLA-B39:51'
p3280
aS'HLA-B39:52'
p3281
aS'HLA-B39:53'
p3282
aS'HLA-B39:54'
p3283
aS'HLA-B39:55'
p3284
aS'HLA-B39:56'
p3285
aS'HLA-B39:57'
p3286
aS'HLA-B39:58'
p3287
aS'HLA-B39:59'
p3288
aS'HLA-B39:60'
p3289
aS'HLA-B40:01'
p3290
aS'HLA-B40:02'
p3291
aS'HLA-B40:03'
p3292
aS'HLA-B40:04'
p3293
aS'HLA-B40:05'
p3294
aS'HLA-B40:06'
p3295
aS'HLA-B40:07'
p3296
aS'HLA-B40:08'
p3297
aS'HLA-B40:09'
p3298
aS'HLA-B40:10'
p3299
aS'HLA-B40:11'
p3300
aS'HLA-B40:12'
p3301
aS'HLA-B40:13'
p3302
aS'HLA-B40:14'
p3303
aS'HLA-B40:15'
p3304
aS'HLA-B40:16'
p3305
aS'HLA-B40:18'
p3306
aS'HLA-B40:19'
p3307
aS'HLA-B40:20'
p3308
aS'HLA-B40:21'
p3309
aS'HLA-B40:23'
p3310
aS'HLA-B40:24'
p3311
aS'HLA-B40:25'
p3312
aS'HLA-B40:26'
p3313
aS'HLA-B40:27'
p3314
aS'HLA-B40:28'
p3315
aS'HLA-B40:29'
p3316
aS'HLA-B40:30'
p3317
aS'HLA-B40:31'
p3318
aS'HLA-B40:32'
p3319
aS'HLA-B40:33'
p3320
aS'HLA-B40:34'
p3321
aS'HLA-B40:35'
p3322
aS'HLA-B40:36'
p3323
aS'HLA-B40:37'
p3324
aS'HLA-B40:38'
p3325
aS'HLA-B40:39'
p3326
aS'HLA-B40:40'
p3327
aS'HLA-B40:42'
p3328
aS'HLA-B40:43'
p3329
aS'HLA-B40:44'
p3330
aS'HLA-B40:45'
p3331
aS'HLA-B40:46'
p3332
aS'HLA-B40:47'
p3333
aS'HLA-B40:48'
p3334
aS'HLA-B40:49'
p3335
aS'HLA-B40:50'
p3336
aS'HLA-B40:51'
p3337
aS'HLA-B40:52'
p3338
aS'HLA-B40:53'
p3339
aS'HLA-B40:54'
p3340
aS'HLA-B40:55'
p3341
aS'HLA-B40:56'
p3342
aS'HLA-B40:57'
p3343
aS'HLA-B40:58'
p3344
aS'HLA-B40:59'
p3345
aS'HLA-B40:60'
p3346
aS'HLA-B40:61'
p3347
aS'HLA-B40:62'
p3348
aS'HLA-B40:63'
p3349
aS'HLA-B40:64'
p3350
aS'HLA-B40:65'
p3351
aS'HLA-B40:66'
p3352
aS'HLA-B40:67'
p3353
aS'HLA-B40:68'
p3354
aS'HLA-B40:69'
p3355
aS'HLA-B40:70'
p3356
aS'HLA-B40:71'
p3357
aS'HLA-B40:72'
p3358
aS'HLA-B40:73'
p3359
aS'HLA-B40:74'
p3360
aS'HLA-B40:75'
p3361
aS'HLA-B40:76'
p3362
aS'HLA-B40:77'
p3363
aS'HLA-B40:78'
p3364
aS'HLA-B40:79'
p3365
aS'HLA-B40:80'
p3366
aS'HLA-B40:81'
p3367
aS'HLA-B40:82'
p3368
aS'HLA-B40:83'
p3369
aS'HLA-B40:84'
p3370
aS'HLA-B40:85'
p3371
aS'HLA-B40:86'
p3372
aS'HLA-B40:87'
p3373
aS'HLA-B40:88'
p3374
aS'HLA-B40:89'
p3375
aS'HLA-B40:90'
p3376
aS'HLA-B40:91'
p3377
aS'HLA-B40:92'
p3378
aS'HLA-B40:93'
p3379
aS'HLA-B40:94'
p3380
aS'HLA-B40:95'
p3381
aS'HLA-B40:96'
p3382
aS'HLA-B40:97'
p3383
aS'HLA-B40:98'
p3384
aS'HLA-B40:99'
p3385
aS'HLA-B40:100'
p3386
aS'HLA-B40:101'
p3387
aS'HLA-B40:102'
p3388
aS'HLA-B40:103'
p3389
aS'HLA-B40:104'
p3390
aS'HLA-B40:105'
p3391
aS'HLA-B40:106'
p3392
aS'HLA-B40:107'
p3393
aS'HLA-B40:108'
p3394
aS'HLA-B40:109'
p3395
aS'HLA-B40:110'
p3396
aS'HLA-B40:111'
p3397
aS'HLA-B40:112'
p3398
aS'HLA-B40:113'
p3399
aS'HLA-B40:114'
p3400
aS'HLA-B40:115'
p3401
aS'HLA-B40:116'
p3402
aS'HLA-B40:117'
p3403
aS'HLA-B40:119'
p3404
aS'HLA-B40:120'
p3405
aS'HLA-B40:121'
p3406
aS'HLA-B40:122'
p3407
aS'HLA-B40:123'
p3408
aS'HLA-B40:124'
p3409
aS'HLA-B40:125'
p3410
aS'HLA-B40:126'
p3411
aS'HLA-B40:127'
p3412
aS'HLA-B40:128'
p3413
aS'HLA-B40:129'
p3414
aS'HLA-B40:130'
p3415
aS'HLA-B40:131'
p3416
aS'HLA-B40:132'
p3417
aS'HLA-B40:134'
p3418
aS'HLA-B40:135'
p3419
aS'HLA-B40:136'
p3420
aS'HLA-B40:137'
p3421
aS'HLA-B40:138'
p3422
aS'HLA-B40:139'
p3423
aS'HLA-B40:140'
p3424
aS'HLA-B40:141'
p3425
aS'HLA-B40:143'
p3426
aS'HLA-B40:145'
p3427
aS'HLA-B40:146'
p3428
aS'HLA-B40:147'
p3429
aS'HLA-B41:01'
p3430
aS'HLA-B41:02'
p3431
aS'HLA-B41:03'
p3432
aS'HLA-B41:04'
p3433
aS'HLA-B41:05'
p3434
aS'HLA-B41:06'
p3435
aS'HLA-B41:07'
p3436
aS'HLA-B41:08'
p3437
aS'HLA-B41:09'
p3438
aS'HLA-B41:10'
p3439
aS'HLA-B41:11'
p3440
aS'HLA-B41:12'
p3441
aS'HLA-B42:01'
p3442
aS'HLA-B42:02'
p3443
aS'HLA-B42:04'
p3444
aS'HLA-B42:05'
p3445
aS'HLA-B42:06'
p3446
aS'HLA-B42:07'
p3447
aS'HLA-B42:08'
p3448
aS'HLA-B42:09'
p3449
aS'HLA-B42:10'
p3450
aS'HLA-B42:11'
p3451
aS'HLA-B42:12'
p3452
aS'HLA-B42:13'
p3453
aS'HLA-B42:14'
p3454
aS'HLA-B44:02'
p3455
aS'HLA-B44:03'
p3456
aS'HLA-B44:04'
p3457
aS'HLA-B44:05'
p3458
aS'HLA-B44:06'
p3459
aS'HLA-B44:07'
p3460
aS'HLA-B44:08'
p3461
aS'HLA-B44:09'
p3462
aS'HLA-B44:10'
p3463
aS'HLA-B44:11'
p3464
aS'HLA-B44:12'
p3465
aS'HLA-B44:13'
p3466
aS'HLA-B44:14'
p3467
aS'HLA-B44:15'
p3468
aS'HLA-B44:16'
p3469
aS'HLA-B44:17'
p3470
aS'HLA-B44:18'
p3471
aS'HLA-B44:20'
p3472
aS'HLA-B44:21'
p3473
aS'HLA-B44:22'
p3474
aS'HLA-B44:24'
p3475
aS'HLA-B44:25'
p3476
aS'HLA-B44:26'
p3477
aS'HLA-B44:27'
p3478
aS'HLA-B44:28'
p3479
aS'HLA-B44:29'
p3480
aS'HLA-B44:30'
p3481
aS'HLA-B44:31'
p3482
aS'HLA-B44:32'
p3483
aS'HLA-B44:33'
p3484
aS'HLA-B44:34'
p3485
aS'HLA-B44:35'
p3486
aS'HLA-B44:36'
p3487
aS'HLA-B44:37'
p3488
aS'HLA-B44:38'
p3489
aS'HLA-B44:39'
p3490
aS'HLA-B44:40'
p3491
aS'HLA-B44:41'
p3492
aS'HLA-B44:42'
p3493
aS'HLA-B44:43'
p3494
aS'HLA-B44:44'
p3495
aS'HLA-B44:45'
p3496
aS'HLA-B44:46'
p3497
aS'HLA-B44:47'
p3498
aS'HLA-B44:48'
p3499
aS'HLA-B44:49'
p3500
aS'HLA-B44:50'
p3501
aS'HLA-B44:51'
p3502
aS'HLA-B44:53'
p3503
aS'HLA-B44:54'
p3504
aS'HLA-B44:55'
p3505
aS'HLA-B44:57'
p3506
aS'HLA-B44:59'
p3507
aS'HLA-B44:60'
p3508
aS'HLA-B44:62'
p3509
aS'HLA-B44:63'
p3510
aS'HLA-B44:64'
p3511
aS'HLA-B44:65'
p3512
aS'HLA-B44:66'
p3513
aS'HLA-B44:67'
p3514
aS'HLA-B44:68'
p3515
aS'HLA-B44:69'
p3516
aS'HLA-B44:70'
p3517
aS'HLA-B44:71'
p3518
aS'HLA-B44:72'
p3519
aS'HLA-B44:73'
p3520
aS'HLA-B44:74'
p3521
aS'HLA-B44:75'
p3522
aS'HLA-B44:76'
p3523
aS'HLA-B44:77'
p3524
aS'HLA-B44:78'
p3525
aS'HLA-B44:79'
p3526
aS'HLA-B44:80'
p3527
aS'HLA-B44:81'
p3528
aS'HLA-B44:82'
p3529
aS'HLA-B44:83'
p3530
aS'HLA-B44:84'
p3531
aS'HLA-B44:85'
p3532
aS'HLA-B44:86'
p3533
aS'HLA-B44:87'
p3534
aS'HLA-B44:88'
p3535
aS'HLA-B44:89'
p3536
aS'HLA-B44:90'
p3537
aS'HLA-B44:91'
p3538
aS'HLA-B44:92'
p3539
aS'HLA-B44:93'
p3540
aS'HLA-B44:94'
p3541
aS'HLA-B44:95'
p3542
aS'HLA-B44:96'
p3543
aS'HLA-B44:97'
p3544
aS'HLA-B44:98'
p3545
aS'HLA-B44:99'
p3546
aS'HLA-B44:100'
p3547
aS'HLA-B44:101'
p3548
aS'HLA-B44:102'
p3549
aS'HLA-B44:103'
p3550
aS'HLA-B44:104'
p3551
aS'HLA-B44:105'
p3552
aS'HLA-B44:106'
p3553
aS'HLA-B44:107'
p3554
aS'HLA-B44:109'
p3555
aS'HLA-B44:110'
p3556
aS'HLA-B45:01'
p3557
aS'HLA-B45:02'
p3558
aS'HLA-B45:03'
p3559
aS'HLA-B45:04'
p3560
aS'HLA-B45:05'
p3561
aS'HLA-B45:06'
p3562
aS'HLA-B45:07'
p3563
aS'HLA-B45:08'
p3564
aS'HLA-B45:09'
p3565
aS'HLA-B45:10'
p3566
aS'HLA-B45:11'
p3567
aS'HLA-B45:12'
p3568
aS'HLA-B46:01'
p3569
aS'HLA-B46:02'
p3570
aS'HLA-B46:03'
p3571
aS'HLA-B46:04'
p3572
aS'HLA-B46:05'
p3573
aS'HLA-B46:06'
p3574
aS'HLA-B46:08'
p3575
aS'HLA-B46:09'
p3576
aS'HLA-B46:10'
p3577
aS'HLA-B46:11'
p3578
aS'HLA-B46:12'
p3579
aS'HLA-B46:13'
p3580
aS'HLA-B46:14'
p3581
aS'HLA-B46:16'
p3582
aS'HLA-B46:17'
p3583
aS'HLA-B46:18'
p3584
aS'HLA-B46:19'
p3585
aS'HLA-B46:20'
p3586
aS'HLA-B46:21'
p3587
aS'HLA-B46:22'
p3588
aS'HLA-B46:23'
p3589
aS'HLA-B46:24'
p3590
aS'HLA-B47:01'
p3591
aS'HLA-B47:02'
p3592
aS'HLA-B47:03'
p3593
aS'HLA-B47:04'
p3594
aS'HLA-B47:05'
p3595
aS'HLA-B47:06'
p3596
aS'HLA-B47:07'
p3597
aS'HLA-B48:01'
p3598
aS'HLA-B48:02'
p3599
aS'HLA-B48:03'
p3600
aS'HLA-B48:04'
p3601
aS'HLA-B48:05'
p3602
aS'HLA-B48:06'
p3603
aS'HLA-B48:07'
p3604
aS'HLA-B48:08'
p3605
aS'HLA-B48:09'
p3606
aS'HLA-B48:10'
p3607
aS'HLA-B48:11'
p3608
aS'HLA-B48:12'
p3609
aS'HLA-B48:13'
p3610
aS'HLA-B48:14'
p3611
aS'HLA-B48:15'
p3612
aS'HLA-B48:16'
p3613
aS'HLA-B48:17'
p3614
aS'HLA-B48:18'
p3615
aS'HLA-B48:19'
p3616
aS'HLA-B48:20'
p3617
aS'HLA-B48:21'
p3618
aS'HLA-B48:22'
p3619
aS'HLA-B48:23'
p3620
aS'HLA-B49:01'
p3621
aS'HLA-B49:02'
p3622
aS'HLA-B49:03'
p3623
aS'HLA-B49:04'
p3624
aS'HLA-B49:05'
p3625
aS'HLA-B49:06'
p3626
aS'HLA-B49:07'
p3627
aS'HLA-B49:08'
p3628
aS'HLA-B49:09'
p3629
aS'HLA-B49:10'
p3630
aS'HLA-B50:01'
p3631
aS'HLA-B50:02'
p3632
aS'HLA-B50:04'
p3633
aS'HLA-B50:05'
p3634
aS'HLA-B50:06'
p3635
aS'HLA-B50:07'
p3636
aS'HLA-B50:08'
p3637
aS'HLA-B50:09'
p3638
aS'HLA-B51:01'
p3639
aS'HLA-B51:02'
p3640
aS'HLA-B51:03'
p3641
aS'HLA-B51:04'
p3642
aS'HLA-B51:05'
p3643
aS'HLA-B51:06'
p3644
aS'HLA-B51:07'
p3645
aS'HLA-B51:08'
p3646
aS'HLA-B51:09'
p3647
aS'HLA-B51:12'
p3648
aS'HLA-B51:13'
p3649
aS'HLA-B51:14'
p3650
aS'HLA-B51:15'
p3651
aS'HLA-B51:16'
p3652
aS'HLA-B51:17'
p3653
aS'HLA-B51:18'
p3654
aS'HLA-B51:19'
p3655
aS'HLA-B51:20'
p3656
aS'HLA-B51:21'
p3657
aS'HLA-B51:22'
p3658
aS'HLA-B51:23'
p3659
aS'HLA-B51:24'
p3660
aS'HLA-B51:26'
p3661
aS'HLA-B51:28'
p3662
aS'HLA-B51:29'
p3663
aS'HLA-B51:30'
p3664
aS'HLA-B51:31'
p3665
aS'HLA-B51:32'
p3666
aS'HLA-B51:33'
p3667
aS'HLA-B51:34'
p3668
aS'HLA-B51:35'
p3669
aS'HLA-B51:36'
p3670
aS'HLA-B51:37'
p3671
aS'HLA-B51:38'
p3672
aS'HLA-B51:39'
p3673
aS'HLA-B51:40'
p3674
aS'HLA-B51:42'
p3675
aS'HLA-B51:43'
p3676
aS'HLA-B51:45'
p3677
aS'HLA-B51:46'
p3678
aS'HLA-B51:48'
p3679
aS'HLA-B51:49'
p3680
aS'HLA-B51:50'
p3681
aS'HLA-B51:51'
p3682
aS'HLA-B51:52'
p3683
aS'HLA-B51:53'
p3684
aS'HLA-B51:54'
p3685
aS'HLA-B51:55'
p3686
aS'HLA-B51:56'
p3687
aS'HLA-B51:57'
p3688
aS'HLA-B51:58'
p3689
aS'HLA-B51:59'
p3690
aS'HLA-B51:60'
p3691
aS'HLA-B51:61'
p3692
aS'HLA-B51:62'
p3693
aS'HLA-B51:63'
p3694
aS'HLA-B51:64'
p3695
aS'HLA-B51:65'
p3696
aS'HLA-B51:66'
p3697
aS'HLA-B51:67'
p3698
aS'HLA-B51:68'
p3699
aS'HLA-B51:69'
p3700
aS'HLA-B51:70'
p3701
aS'HLA-B51:71'
p3702
aS'HLA-B51:72'
p3703
aS'HLA-B51:73'
p3704
aS'HLA-B51:74'
p3705
aS'HLA-B51:75'
p3706
aS'HLA-B51:76'
p3707
aS'HLA-B51:77'
p3708
aS'HLA-B51:78'
p3709
aS'HLA-B51:79'
p3710
aS'HLA-B51:80'
p3711
aS'HLA-B51:81'
p3712
aS'HLA-B51:82'
p3713
aS'HLA-B51:83'
p3714
aS'HLA-B51:84'
p3715
aS'HLA-B51:85'
p3716
aS'HLA-B51:86'
p3717
aS'HLA-B51:87'
p3718
aS'HLA-B51:88'
p3719
aS'HLA-B51:89'
p3720
aS'HLA-B51:90'
p3721
aS'HLA-B51:91'
p3722
aS'HLA-B51:92'
p3723
aS'HLA-B51:93'
p3724
aS'HLA-B51:94'
p3725
aS'HLA-B51:95'
p3726
aS'HLA-B51:96'
p3727
aS'HLA-B52:01'
p3728
aS'HLA-B52:02'
p3729
aS'HLA-B52:03'
p3730
aS'HLA-B52:04'
p3731
aS'HLA-B52:05'
p3732
aS'HLA-B52:06'
p3733
aS'HLA-B52:07'
p3734
aS'HLA-B52:08'
p3735
aS'HLA-B52:09'
p3736
aS'HLA-B52:10'
p3737
aS'HLA-B52:11'
p3738
aS'HLA-B52:12'
p3739
aS'HLA-B52:13'
p3740
aS'HLA-B52:14'
p3741
aS'HLA-B52:15'
p3742
aS'HLA-B52:16'
p3743
aS'HLA-B52:17'
p3744
aS'HLA-B52:18'
p3745
aS'HLA-B52:19'
p3746
aS'HLA-B52:20'
p3747
aS'HLA-B52:21'
p3748
aS'HLA-B53:01'
p3749
aS'HLA-B53:02'
p3750
aS'HLA-B53:03'
p3751
aS'HLA-B53:04'
p3752
aS'HLA-B53:05'
p3753
aS'HLA-B53:06'
p3754
aS'HLA-B53:07'
p3755
aS'HLA-B53:08'
p3756
aS'HLA-B53:09'
p3757
aS'HLA-B53:10'
p3758
aS'HLA-B53:11'
p3759
aS'HLA-B53:12'
p3760
aS'HLA-B53:13'
p3761
aS'HLA-B53:14'
p3762
aS'HLA-B53:15'
p3763
aS'HLA-B53:16'
p3764
aS'HLA-B53:17'
p3765
aS'HLA-B53:18'
p3766
aS'HLA-B53:19'
p3767
aS'HLA-B53:20'
p3768
aS'HLA-B53:21'
p3769
aS'HLA-B53:22'
p3770
aS'HLA-B53:23'
p3771
aS'HLA-B54:01'
p3772
aS'HLA-B54:02'
p3773
aS'HLA-B54:03'
p3774
aS'HLA-B54:04'
p3775
aS'HLA-B54:06'
p3776
aS'HLA-B54:07'
p3777
aS'HLA-B54:09'
p3778
aS'HLA-B54:10'
p3779
aS'HLA-B54:11'
p3780
aS'HLA-B54:12'
p3781
aS'HLA-B54:13'
p3782
aS'HLA-B54:14'
p3783
aS'HLA-B54:15'
p3784
aS'HLA-B54:16'
p3785
aS'HLA-B54:17'
p3786
aS'HLA-B54:18'
p3787
aS'HLA-B54:19'
p3788
aS'HLA-B54:20'
p3789
aS'HLA-B54:21'
p3790
aS'HLA-B54:22'
p3791
aS'HLA-B54:23'
p3792
aS'HLA-B55:01'
p3793
aS'HLA-B55:02'
p3794
aS'HLA-B55:03'
p3795
aS'HLA-B55:04'
p3796
aS'HLA-B55:05'
p3797
aS'HLA-B55:07'
p3798
aS'HLA-B55:08'
p3799
aS'HLA-B55:09'
p3800
aS'HLA-B55:10'
p3801
aS'HLA-B55:11'
p3802
aS'HLA-B55:12'
p3803
aS'HLA-B55:13'
p3804
aS'HLA-B55:14'
p3805
aS'HLA-B55:15'
p3806
aS'HLA-B55:16'
p3807
aS'HLA-B55:17'
p3808
aS'HLA-B55:18'
p3809
aS'HLA-B55:19'
p3810
aS'HLA-B55:20'
p3811
aS'HLA-B55:21'
p3812
aS'HLA-B55:22'
p3813
aS'HLA-B55:23'
p3814
aS'HLA-B55:24'
p3815
aS'HLA-B55:25'
p3816
aS'HLA-B55:26'
p3817
aS'HLA-B55:27'
p3818
aS'HLA-B55:28'
p3819
aS'HLA-B55:29'
p3820
aS'HLA-B55:30'
p3821
aS'HLA-B55:31'
p3822
aS'HLA-B55:32'
p3823
aS'HLA-B55:33'
p3824
aS'HLA-B55:34'
p3825
aS'HLA-B55:35'
p3826
aS'HLA-B55:36'
p3827
aS'HLA-B55:37'
p3828
aS'HLA-B55:38'
p3829
aS'HLA-B55:39'
p3830
aS'HLA-B55:40'
p3831
aS'HLA-B55:41'
p3832
aS'HLA-B55:42'
p3833
aS'HLA-B55:43'
p3834
aS'HLA-B56:01'
p3835
aS'HLA-B56:02'
p3836
aS'HLA-B56:03'
p3837
aS'HLA-B56:04'
p3838
aS'HLA-B56:05'
p3839
aS'HLA-B56:06'
p3840
aS'HLA-B56:07'
p3841
aS'HLA-B56:08'
p3842
aS'HLA-B56:09'
p3843
aS'HLA-B56:10'
p3844
aS'HLA-B56:11'
p3845
aS'HLA-B56:12'
p3846
aS'HLA-B56:13'
p3847
aS'HLA-B56:14'
p3848
aS'HLA-B56:15'
p3849
aS'HLA-B56:16'
p3850
aS'HLA-B56:17'
p3851
aS'HLA-B56:18'
p3852
aS'HLA-B56:20'
p3853
aS'HLA-B56:21'
p3854
aS'HLA-B56:22'
p3855
aS'HLA-B56:23'
p3856
aS'HLA-B56:24'
p3857
aS'HLA-B56:25'
p3858
aS'HLA-B56:26'
p3859
aS'HLA-B56:27'
p3860
aS'HLA-B56:29'
p3861
aS'HLA-B57:01'
p3862
aS'HLA-B57:02'
p3863
aS'HLA-B57:03'
p3864
aS'HLA-B57:04'
p3865
aS'HLA-B57:05'
p3866
aS'HLA-B57:06'
p3867
aS'HLA-B57:07'
p3868
aS'HLA-B57:08'
p3869
aS'HLA-B57:09'
p3870
aS'HLA-B57:10'
p3871
aS'HLA-B57:11'
p3872
aS'HLA-B57:12'
p3873
aS'HLA-B57:13'
p3874
aS'HLA-B57:14'
p3875
aS'HLA-B57:15'
p3876
aS'HLA-B57:16'
p3877
aS'HLA-B57:17'
p3878
aS'HLA-B57:18'
p3879
aS'HLA-B57:19'
p3880
aS'HLA-B57:20'
p3881
aS'HLA-B57:21'
p3882
aS'HLA-B57:22'
p3883
aS'HLA-B57:23'
p3884
aS'HLA-B57:24'
p3885
aS'HLA-B57:25'
p3886
aS'HLA-B57:26'
p3887
aS'HLA-B57:27'
p3888
aS'HLA-B57:29'
p3889
aS'HLA-B57:30'
p3890
aS'HLA-B57:31'
p3891
aS'HLA-B57:32'
p3892
aS'HLA-B58:01'
p3893
aS'HLA-B58:02'
p3894
aS'HLA-B58:04'
p3895
aS'HLA-B58:05'
p3896
aS'HLA-B58:06'
p3897
aS'HLA-B58:07'
p3898
aS'HLA-B58:08'
p3899
aS'HLA-B58:09'
p3900
aS'HLA-B58:11'
p3901
aS'HLA-B58:12'
p3902
aS'HLA-B58:13'
p3903
aS'HLA-B58:14'
p3904
aS'HLA-B58:15'
p3905
aS'HLA-B58:16'
p3906
aS'HLA-B58:18'
p3907
aS'HLA-B58:19'
p3908
aS'HLA-B58:20'
p3909
aS'HLA-B58:21'
p3910
aS'HLA-B58:22'
p3911
aS'HLA-B58:23'
p3912
aS'HLA-B58:24'
p3913
aS'HLA-B58:25'
p3914
aS'HLA-B58:26'
p3915
aS'HLA-B58:27'
p3916
aS'HLA-B58:28'
p3917
aS'HLA-B58:29'
p3918
aS'HLA-B58:30'
p3919
aS'HLA-B59:01'
p3920
aS'HLA-B59:02'
p3921
aS'HLA-B59:03'
p3922
aS'HLA-B59:04'
p3923
aS'HLA-B59:05'
p3924
aS'HLA-B67:01'
p3925
aS'HLA-B67:02'
p3926
aS'HLA-B73:01'
p3927
aS'HLA-B73:02'
p3928
aS'HLA-B78:01'
p3929
aS'HLA-B78:02'
p3930
aS'HLA-B78:03'
p3931
aS'HLA-B78:04'
p3932
aS'HLA-B78:05'
p3933
aS'HLA-B78:06'
p3934
aS'HLA-B78:07'
p3935
aS'HLA-B81:01'
p3936
aS'HLA-B81:02'
p3937
aS'HLA-B81:03'
p3938
aS'HLA-B81:05'
p3939
aS'HLA-B82:01'
p3940
aS'HLA-B82:02'
p3941
aS'HLA-B82:03'
p3942
aS'HLA-B83:01'
p3943
aS'HLA-C01:02'
p3944
aS'HLA-C01:03'
p3945
aS'HLA-C01:04'
p3946
aS'HLA-C01:05'
p3947
aS'HLA-C01:06'
p3948
aS'HLA-C01:07'
p3949
aS'HLA-C01:08'
p3950
aS'HLA-C01:09'
p3951
aS'HLA-C01:10'
p3952
aS'HLA-C01:11'
p3953
aS'HLA-C01:12'
p3954
aS'HLA-C01:13'
p3955
aS'HLA-C01:14'
p3956
aS'HLA-C01:15'
p3957
aS'HLA-C01:16'
p3958
aS'HLA-C01:17'
p3959
aS'HLA-C01:18'
p3960
aS'HLA-C01:19'
p3961
aS'HLA-C01:20'
p3962
aS'HLA-C01:21'
p3963
aS'HLA-C01:22'
p3964
aS'HLA-C01:23'
p3965
aS'HLA-C01:24'
p3966
aS'HLA-C01:25'
p3967
aS'HLA-C01:26'
p3968
aS'HLA-C01:27'
p3969
aS'HLA-C01:28'
p3970
aS'HLA-C01:29'
p3971
aS'HLA-C01:30'
p3972
aS'HLA-C01:31'
p3973
aS'HLA-C01:32'
p3974
aS'HLA-C01:33'
p3975
aS'HLA-C01:34'
p3976
aS'HLA-C01:35'
p3977
aS'HLA-C01:36'
p3978
aS'HLA-C01:38'
p3979
aS'HLA-C01:39'
p3980
aS'HLA-C01:40'
p3981
aS'HLA-C02:02'
p3982
aS'HLA-C02:03'
p3983
aS'HLA-C02:04'
p3984
aS'HLA-C02:05'
p3985
aS'HLA-C02:06'
p3986
aS'HLA-C02:07'
p3987
aS'HLA-C02:08'
p3988
aS'HLA-C02:09'
p3989
aS'HLA-C02:10'
p3990
aS'HLA-C02:11'
p3991
aS'HLA-C02:12'
p3992
aS'HLA-C02:13'
p3993
aS'HLA-C02:14'
p3994
aS'HLA-C02:15'
p3995
aS'HLA-C02:16'
p3996
aS'HLA-C02:17'
p3997
aS'HLA-C02:18'
p3998
aS'HLA-C02:19'
p3999
aS'HLA-C02:20'
p4000
aS'HLA-C02:21'
p4001
aS'HLA-C02:22'
p4002
aS'HLA-C02:23'
p4003
aS'HLA-C02:24'
p4004
aS'HLA-C02:26'
p4005
aS'HLA-C02:27'
p4006
aS'HLA-C02:28'
p4007
aS'HLA-C02:29'
p4008
aS'HLA-C02:30'
p4009
aS'HLA-C02:31'
p4010
aS'HLA-C02:32'
p4011
aS'HLA-C02:33'
p4012
aS'HLA-C02:34'
p4013
aS'HLA-C02:35'
p4014
aS'HLA-C02:36'
p4015
aS'HLA-C02:37'
p4016
aS'HLA-C02:39'
p4017
aS'HLA-C02:40'
p4018
aS'HLA-C03:01'
p4019
aS'HLA-C03:02'
p4020
aS'HLA-C03:03'
p4021
aS'HLA-C03:04'
p4022
aS'HLA-C03:05'
p4023
aS'HLA-C03:06'
p4024
aS'HLA-C03:07'
p4025
aS'HLA-C03:08'
p4026
aS'HLA-C03:09'
p4027
aS'HLA-C03:10'
p4028
aS'HLA-C03:11'
p4029
aS'HLA-C03:12'
p4030
aS'HLA-C03:13'
p4031
aS'HLA-C03:14'
p4032
aS'HLA-C03:15'
p4033
aS'HLA-C03:16'
p4034
aS'HLA-C03:17'
p4035
aS'HLA-C03:18'
p4036
aS'HLA-C03:19'
p4037
aS'HLA-C03:21'
p4038
aS'HLA-C03:23'
p4039
aS'HLA-C03:24'
p4040
aS'HLA-C03:25'
p4041
aS'HLA-C03:26'
p4042
aS'HLA-C03:27'
p4043
aS'HLA-C03:28'
p4044
aS'HLA-C03:29'
p4045
aS'HLA-C03:30'
p4046
aS'HLA-C03:31'
p4047
aS'HLA-C03:32'
p4048
aS'HLA-C03:33'
p4049
aS'HLA-C03:34'
p4050
aS'HLA-C03:35'
p4051
aS'HLA-C03:36'
p4052
aS'HLA-C03:37'
p4053
aS'HLA-C03:38'
p4054
aS'HLA-C03:39'
p4055
aS'HLA-C03:40'
p4056
aS'HLA-C03:41'
p4057
aS'HLA-C03:42'
p4058
aS'HLA-C03:43'
p4059
aS'HLA-C03:44'
p4060
aS'HLA-C03:45'
p4061
aS'HLA-C03:46'
p4062
aS'HLA-C03:47'
p4063
aS'HLA-C03:48'
p4064
aS'HLA-C03:49'
p4065
aS'HLA-C03:50'
p4066
aS'HLA-C03:51'
p4067
aS'HLA-C03:52'
p4068
aS'HLA-C03:53'
p4069
aS'HLA-C03:54'
p4070
aS'HLA-C03:55'
p4071
aS'HLA-C03:56'
p4072
aS'HLA-C03:57'
p4073
aS'HLA-C03:58'
p4074
aS'HLA-C03:59'
p4075
aS'HLA-C03:60'
p4076
aS'HLA-C03:61'
p4077
aS'HLA-C03:62'
p4078
aS'HLA-C03:63'
p4079
aS'HLA-C03:64'
p4080
aS'HLA-C03:65'
p4081
aS'HLA-C03:66'
p4082
aS'HLA-C03:67'
p4083
aS'HLA-C03:68'
p4084
aS'HLA-C03:69'
p4085
aS'HLA-C03:70'
p4086
aS'HLA-C03:71'
p4087
aS'HLA-C03:72'
p4088
aS'HLA-C03:73'
p4089
aS'HLA-C03:74'
p4090
aS'HLA-C03:75'
p4091
aS'HLA-C03:76'
p4092
aS'HLA-C03:77'
p4093
aS'HLA-C03:78'
p4094
aS'HLA-C03:79'
p4095
aS'HLA-C03:80'
p4096
aS'HLA-C03:81'
p4097
aS'HLA-C03:82'
p4098
aS'HLA-C03:83'
p4099
aS'HLA-C03:84'
p4100
aS'HLA-C03:85'
p4101
aS'HLA-C03:86'
p4102
aS'HLA-C03:87'
p4103
aS'HLA-C03:88'
p4104
aS'HLA-C03:89'
p4105
aS'HLA-C03:90'
p4106
aS'HLA-C03:91'
p4107
aS'HLA-C03:92'
p4108
aS'HLA-C03:93'
p4109
aS'HLA-C03:94'
p4110
aS'HLA-C04:01'
p4111
aS'HLA-C04:03'
p4112
aS'HLA-C04:04'
p4113
aS'HLA-C04:05'
p4114
aS'HLA-C04:06'
p4115
aS'HLA-C04:07'
p4116
aS'HLA-C04:08'
p4117
aS'HLA-C04:10'
p4118
aS'HLA-C04:11'
p4119
aS'HLA-C04:12'
p4120
aS'HLA-C04:13'
p4121
aS'HLA-C04:14'
p4122
aS'HLA-C04:15'
p4123
aS'HLA-C04:16'
p4124
aS'HLA-C04:17'
p4125
aS'HLA-C04:18'
p4126
aS'HLA-C04:19'
p4127
aS'HLA-C04:20'
p4128
aS'HLA-C04:23'
p4129
aS'HLA-C04:24'
p4130
aS'HLA-C04:25'
p4131
aS'HLA-C04:26'
p4132
aS'HLA-C04:27'
p4133
aS'HLA-C04:28'
p4134
aS'HLA-C04:29'
p4135
aS'HLA-C04:30'
p4136
aS'HLA-C04:31'
p4137
aS'HLA-C04:32'
p4138
aS'HLA-C04:33'
p4139
aS'HLA-C04:34'
p4140
aS'HLA-C04:35'
p4141
aS'HLA-C04:36'
p4142
aS'HLA-C04:37'
p4143
aS'HLA-C04:38'
p4144
aS'HLA-C04:39'
p4145
aS'HLA-C04:40'
p4146
aS'HLA-C04:41'
p4147
aS'HLA-C04:42'
p4148
aS'HLA-C04:43'
p4149
aS'HLA-C04:44'
p4150
aS'HLA-C04:45'
p4151
aS'HLA-C04:46'
p4152
aS'HLA-C04:47'
p4153
aS'HLA-C04:48'
p4154
aS'HLA-C04:49'
p4155
aS'HLA-C04:50'
p4156
aS'HLA-C04:51'
p4157
aS'HLA-C04:52'
p4158
aS'HLA-C04:53'
p4159
aS'HLA-C04:54'
p4160
aS'HLA-C04:55'
p4161
aS'HLA-C04:56'
p4162
aS'HLA-C04:57'
p4163
aS'HLA-C04:58'
p4164
aS'HLA-C04:60'
p4165
aS'HLA-C04:61'
p4166
aS'HLA-C04:62'
p4167
aS'HLA-C04:63'
p4168
aS'HLA-C04:64'
p4169
aS'HLA-C04:65'
p4170
aS'HLA-C04:66'
p4171
aS'HLA-C04:67'
p4172
aS'HLA-C04:68'
p4173
aS'HLA-C04:69'
p4174
aS'HLA-C04:70'
p4175
aS'HLA-C05:01'
p4176
aS'HLA-C05:03'
p4177
aS'HLA-C05:04'
p4178
aS'HLA-C05:05'
p4179
aS'HLA-C05:06'
p4180
aS'HLA-C05:08'
p4181
aS'HLA-C05:09'
p4182
aS'HLA-C05:10'
p4183
aS'HLA-C05:11'
p4184
aS'HLA-C05:12'
p4185
aS'HLA-C05:13'
p4186
aS'HLA-C05:14'
p4187
aS'HLA-C05:15'
p4188
aS'HLA-C05:16'
p4189
aS'HLA-C05:17'
p4190
aS'HLA-C05:18'
p4191
aS'HLA-C05:19'
p4192
aS'HLA-C05:20'
p4193
aS'HLA-C05:21'
p4194
aS'HLA-C05:22'
p4195
aS'HLA-C05:23'
p4196
aS'HLA-C05:24'
p4197
aS'HLA-C05:25'
p4198
aS'HLA-C05:26'
p4199
aS'HLA-C05:27'
p4200
aS'HLA-C05:28'
p4201
aS'HLA-C05:29'
p4202
aS'HLA-C05:30'
p4203
aS'HLA-C05:31'
p4204
aS'HLA-C05:32'
p4205
aS'HLA-C05:33'
p4206
aS'HLA-C05:34'
p4207
aS'HLA-C05:35'
p4208
aS'HLA-C05:36'
p4209
aS'HLA-C05:37'
p4210
aS'HLA-C05:38'
p4211
aS'HLA-C05:39'
p4212
aS'HLA-C05:40'
p4213
aS'HLA-C05:41'
p4214
aS'HLA-C05:42'
p4215
aS'HLA-C05:43'
p4216
aS'HLA-C05:44'
p4217
aS'HLA-C05:45'
p4218
aS'HLA-C06:02'
p4219
aS'HLA-C06:03'
p4220
aS'HLA-C06:04'
p4221
aS'HLA-C06:05'
p4222
aS'HLA-C06:06'
p4223
aS'HLA-C06:07'
p4224
aS'HLA-C06:08'
p4225
aS'HLA-C06:09'
p4226
aS'HLA-C06:10'
p4227
aS'HLA-C06:11'
p4228
aS'HLA-C06:12'
p4229
aS'HLA-C06:13'
p4230
aS'HLA-C06:14'
p4231
aS'HLA-C06:15'
p4232
aS'HLA-C06:17'
p4233
aS'HLA-C06:18'
p4234
aS'HLA-C06:19'
p4235
aS'HLA-C06:20'
p4236
aS'HLA-C06:21'
p4237
aS'HLA-C06:22'
p4238
aS'HLA-C06:23'
p4239
aS'HLA-C06:24'
p4240
aS'HLA-C06:25'
p4241
aS'HLA-C06:26'
p4242
aS'HLA-C06:27'
p4243
aS'HLA-C06:28'
p4244
aS'HLA-C06:29'
p4245
aS'HLA-C06:30'
p4246
aS'HLA-C06:31'
p4247
aS'HLA-C06:32'
p4248
aS'HLA-C06:33'
p4249
aS'HLA-C06:34'
p4250
aS'HLA-C06:35'
p4251
aS'HLA-C06:36'
p4252
aS'HLA-C06:37'
p4253
aS'HLA-C06:38'
p4254
aS'HLA-C06:39'
p4255
aS'HLA-C06:40'
p4256
aS'HLA-C06:41'
p4257
aS'HLA-C06:42'
p4258
aS'HLA-C06:43'
p4259
aS'HLA-C06:44'
p4260
aS'HLA-C06:45'
p4261
aS'HLA-C07:01'
p4262
aS'HLA-C07:02'
p4263
aS'HLA-C07:03'
p4264
aS'HLA-C07:04'
p4265
aS'HLA-C07:05'
p4266
aS'HLA-C07:06'
p4267
aS'HLA-C07:07'
p4268
aS'HLA-C07:08'
p4269
aS'HLA-C07:09'
p4270
aS'HLA-C07:10'
p4271
aS'HLA-C07:11'
p4272
aS'HLA-C07:12'
p4273
aS'HLA-C07:13'
p4274
aS'HLA-C07:14'
p4275
aS'HLA-C07:15'
p4276
aS'HLA-C07:16'
p4277
aS'HLA-C07:17'
p4278
aS'HLA-C07:18'
p4279
aS'HLA-C07:19'
p4280
aS'HLA-C07:20'
p4281
aS'HLA-C07:21'
p4282
aS'HLA-C07:22'
p4283
aS'HLA-C07:23'
p4284
aS'HLA-C07:24'
p4285
aS'HLA-C07:25'
p4286
aS'HLA-C07:26'
p4287
aS'HLA-C07:27'
p4288
aS'HLA-C07:28'
p4289
aS'HLA-C07:29'
p4290
aS'HLA-C07:30'
p4291
aS'HLA-C07:31'
p4292
aS'HLA-C07:35'
p4293
aS'HLA-C07:36'
p4294
aS'HLA-C07:37'
p4295
aS'HLA-C07:38'
p4296
aS'HLA-C07:39'
p4297
aS'HLA-C07:40'
p4298
aS'HLA-C07:41'
p4299
aS'HLA-C07:42'
p4300
aS'HLA-C07:43'
p4301
aS'HLA-C07:44'
p4302
aS'HLA-C07:45'
p4303
aS'HLA-C07:46'
p4304
aS'HLA-C07:47'
p4305
aS'HLA-C07:48'
p4306
aS'HLA-C07:49'
p4307
aS'HLA-C07:50'
p4308
aS'HLA-C07:51'
p4309
aS'HLA-C07:52'
p4310
aS'HLA-C07:53'
p4311
aS'HLA-C07:54'
p4312
aS'HLA-C07:56'
p4313
aS'HLA-C07:57'
p4314
aS'HLA-C07:58'
p4315
aS'HLA-C07:59'
p4316
aS'HLA-C07:60'
p4317
aS'HLA-C07:62'
p4318
aS'HLA-C07:63'
p4319
aS'HLA-C07:64'
p4320
aS'HLA-C07:65'
p4321
aS'HLA-C07:66'
p4322
aS'HLA-C07:67'
p4323
aS'HLA-C07:68'
p4324
aS'HLA-C07:69'
p4325
aS'HLA-C07:70'
p4326
aS'HLA-C07:71'
p4327
aS'HLA-C07:72'
p4328
aS'HLA-C07:73'
p4329
aS'HLA-C07:74'
p4330
aS'HLA-C07:75'
p4331
aS'HLA-C07:76'
p4332
aS'HLA-C07:77'
p4333
aS'HLA-C07:78'
p4334
aS'HLA-C07:79'
p4335
aS'HLA-C07:80'
p4336
aS'HLA-C07:81'
p4337
aS'HLA-C07:82'
p4338
aS'HLA-C07:83'
p4339
aS'HLA-C07:84'
p4340
aS'HLA-C07:85'
p4341
aS'HLA-C07:86'
p4342
aS'HLA-C07:87'
p4343
aS'HLA-C07:88'
p4344
aS'HLA-C07:89'
p4345
aS'HLA-C07:90'
p4346
aS'HLA-C07:91'
p4347
aS'HLA-C07:92'
p4348
aS'HLA-C07:93'
p4349
aS'HLA-C07:94'
p4350
aS'HLA-C07:95'
p4351
aS'HLA-C07:96'
p4352
aS'HLA-C07:97'
p4353
aS'HLA-C07:99'
p4354
aS'HLA-C07:100'
p4355
aS'HLA-C07:101'
p4356
aS'HLA-C07:102'
p4357
aS'HLA-C07:103'
p4358
aS'HLA-C07:105'
p4359
aS'HLA-C07:106'
p4360
aS'HLA-C07:107'
p4361
aS'HLA-C07:108'
p4362
aS'HLA-C07:109'
p4363
aS'HLA-C07:110'
p4364
aS'HLA-C07:111'
p4365
aS'HLA-C07:112'
p4366
aS'HLA-C07:113'
p4367
aS'HLA-C07:114'
p4368
aS'HLA-C07:115'
p4369
aS'HLA-C07:116'
p4370
aS'HLA-C07:117'
p4371
aS'HLA-C07:118'
p4372
aS'HLA-C07:119'
p4373
aS'HLA-C07:120'
p4374
aS'HLA-C07:122'
p4375
aS'HLA-C07:123'
p4376
aS'HLA-C07:124'
p4377
aS'HLA-C07:125'
p4378
aS'HLA-C07:126'
p4379
aS'HLA-C07:127'
p4380
aS'HLA-C07:128'
p4381
aS'HLA-C07:129'
p4382
aS'HLA-C07:130'
p4383
aS'HLA-C07:131'
p4384
aS'HLA-C07:132'
p4385
aS'HLA-C07:133'
p4386
aS'HLA-C07:134'
p4387
aS'HLA-C07:135'
p4388
aS'HLA-C07:136'
p4389
aS'HLA-C07:137'
p4390
aS'HLA-C07:138'
p4391
aS'HLA-C07:139'
p4392
aS'HLA-C07:140'
p4393
aS'HLA-C07:141'
p4394
aS'HLA-C07:142'
p4395
aS'HLA-C07:143'
p4396
aS'HLA-C07:144'
p4397
aS'HLA-C07:145'
p4398
aS'HLA-C07:146'
p4399
aS'HLA-C07:147'
p4400
aS'HLA-C07:148'
p4401
aS'HLA-C07:149'
p4402
aS'HLA-C08:01'
p4403
aS'HLA-C08:02'
p4404
aS'HLA-C08:03'
p4405
aS'HLA-C08:04'
p4406
aS'HLA-C08:05'
p4407
aS'HLA-C08:06'
p4408
aS'HLA-C08:07'
p4409
aS'HLA-C08:08'
p4410
aS'HLA-C08:09'
p4411
aS'HLA-C08:10'
p4412
aS'HLA-C08:11'
p4413
aS'HLA-C08:12'
p4414
aS'HLA-C08:13'
p4415
aS'HLA-C08:14'
p4416
aS'HLA-C08:15'
p4417
aS'HLA-C08:16'
p4418
aS'HLA-C08:17'
p4419
aS'HLA-C08:18'
p4420
aS'HLA-C08:19'
p4421
aS'HLA-C08:20'
p4422
aS'HLA-C08:21'
p4423
aS'HLA-C08:22'
p4424
aS'HLA-C08:23'
p4425
aS'HLA-C08:24'
p4426
aS'HLA-C08:25'
p4427
aS'HLA-C08:27'
p4428
aS'HLA-C08:28'
p4429
aS'HLA-C08:29'
p4430
aS'HLA-C08:30'
p4431
aS'HLA-C08:31'
p4432
aS'HLA-C08:32'
p4433
aS'HLA-C08:33'
p4434
aS'HLA-C08:34'
p4435
aS'HLA-C08:35'
p4436
aS'HLA-C12:02'
p4437
aS'HLA-C12:03'
p4438
aS'HLA-C12:04'
p4439
aS'HLA-C12:05'
p4440
aS'HLA-C12:06'
p4441
aS'HLA-C12:07'
p4442
aS'HLA-C12:08'
p4443
aS'HLA-C12:09'
p4444
aS'HLA-C12:10'
p4445
aS'HLA-C12:11'
p4446
aS'HLA-C12:12'
p4447
aS'HLA-C12:13'
p4448
aS'HLA-C12:14'
p4449
aS'HLA-C12:15'
p4450
aS'HLA-C12:16'
p4451
aS'HLA-C12:17'
p4452
aS'HLA-C12:18'
p4453
aS'HLA-C12:19'
p4454
aS'HLA-C12:20'
p4455
aS'HLA-C12:21'
p4456
aS'HLA-C12:22'
p4457
aS'HLA-C12:23'
p4458
aS'HLA-C12:24'
p4459
aS'HLA-C12:25'
p4460
aS'HLA-C12:26'
p4461
aS'HLA-C12:27'
p4462
aS'HLA-C12:28'
p4463
aS'HLA-C12:29'
p4464
aS'HLA-C12:30'
p4465
aS'HLA-C12:31'
p4466
aS'HLA-C12:32'
p4467
aS'HLA-C12:33'
p4468
aS'HLA-C12:34'
p4469
aS'HLA-C12:35'
p4470
aS'HLA-C12:36'
p4471
aS'HLA-C12:37'
p4472
aS'HLA-C12:38'
p4473
aS'HLA-C12:40'
p4474
aS'HLA-C12:41'
p4475
aS'HLA-C12:43'
p4476
aS'HLA-C12:44'
p4477
aS'HLA-C14:02'
p4478
aS'HLA-C14:03'
p4479
aS'HLA-C14:04'
p4480
aS'HLA-C14:05'
p4481
aS'HLA-C14:06'
p4482
aS'HLA-C14:08'
p4483
aS'HLA-C14:09'
p4484
aS'HLA-C14:10'
p4485
aS'HLA-C14:11'
p4486
aS'HLA-C14:12'
p4487
aS'HLA-C14:13'
p4488
aS'HLA-C14:14'
p4489
aS'HLA-C14:15'
p4490
aS'HLA-C14:16'
p4491
aS'HLA-C14:17'
p4492
aS'HLA-C14:18'
p4493
aS'HLA-C14:19'
p4494
aS'HLA-C14:20'
p4495
aS'HLA-C15:02'
p4496
aS'HLA-C15:03'
p4497
aS'HLA-C15:04'
p4498
aS'HLA-C15:05'
p4499
aS'HLA-C15:06'
p4500
aS'HLA-C15:07'
p4501
aS'HLA-C15:08'
p4502
aS'HLA-C15:09'
p4503
aS'HLA-C15:10'
p4504
aS'HLA-C15:11'
p4505
aS'HLA-C15:12'
p4506
aS'HLA-C15:13'
p4507
aS'HLA-C15:15'
p4508
aS'HLA-C15:16'
p4509
aS'HLA-C15:17'
p4510
aS'HLA-C15:18'
p4511
aS'HLA-C15:19'
p4512
aS'HLA-C15:20'
p4513
aS'HLA-C15:21'
p4514
aS'HLA-C15:22'
p4515
aS'HLA-C15:23'
p4516
aS'HLA-C15:24'
p4517
aS'HLA-C15:25'
p4518
aS'HLA-C15:26'
p4519
aS'HLA-C15:27'
p4520
aS'HLA-C15:28'
p4521
aS'HLA-C15:29'
p4522
aS'HLA-C15:30'
p4523
aS'HLA-C15:31'
p4524
aS'HLA-C15:33'
p4525
aS'HLA-C15:34'
p4526
aS'HLA-C15:35'
p4527
aS'HLA-C16:01'
p4528
aS'HLA-C16:02'
p4529
aS'HLA-C16:04'
p4530
aS'HLA-C16:06'
p4531
aS'HLA-C16:07'
p4532
aS'HLA-C16:08'
p4533
aS'HLA-C16:09'
p4534
aS'HLA-C16:10'
p4535
aS'HLA-C16:11'
p4536
aS'HLA-C16:12'
p4537
aS'HLA-C16:13'
p4538
aS'HLA-C16:14'
p4539
aS'HLA-C16:15'
p4540
aS'HLA-C16:17'
p4541
aS'HLA-C16:18'
p4542
aS'HLA-C16:19'
p4543
aS'HLA-C16:20'
p4544
aS'HLA-C16:21'
p4545
aS'HLA-C16:22'
p4546
aS'HLA-C16:23'
p4547
aS'HLA-C16:24'
p4548
aS'HLA-C16:25'
p4549
aS'HLA-C16:26'
p4550
aS'HLA-C17:01'
p4551
aS'HLA-C17:02'
p4552
aS'HLA-C17:03'
p4553
aS'HLA-C17:04'
p4554
aS'HLA-C17:05'
p4555
aS'HLA-C17:06'
p4556
aS'HLA-C17:07'
p4557
aS'HLA-C18:01'
p4558
aS'HLA-C18:02'
p4559
aS'HLA-C18:03'
p4560
aS'Mamu-A1:00101'
p4561
aS'Mamu-A1:00102'
p4562
aS'Mamu-A1:00103'
p4563
aS'Mamu-A1:00104'
p4564
aS'Mamu-A1:00105'
p4565
aS'Mamu-A1:00201'
p4566
aS'Mamu-A1:00301'
p4567
aS'Mamu-A1:00302'
p4568
aS'Mamu-A1:00303'
p4569
aS'Mamu-A1:00304'
p4570
aS'Mamu-A1:00305'
p4571
aS'Mamu-A1:00306'
p4572
aS'Mamu-A1:00307'
p4573
aS'Mamu-A1:00308'
p4574
aS'Mamu-A1:00310'
p4575
aS'Mamu-A1:00401'
p4576
aS'Mamu-A1:00402'
p4577
aS'Mamu-A1:00403'
p4578
aS'Mamu-A1:00601'
p4579
aS'Mamu-A1:00602'
p4580
aS'Mamu-A1:00701'
p4581
aS'Mamu-A1:00702'
p4582
aS'Mamu-A1:00703'
p4583
aS'Mamu-A1:00704'
p4584
aS'Mamu-A1:00705'
p4585
aS'Mamu-A1:00801'
p4586
aS'Mamu-A1:01001'
p4587
aS'Mamu-A1:01002'
p4588
aS'Mamu-A1:01101'
p4589
aS'Mamu-A1:01102'
p4590
aS'Mamu-A1:01103'
p4591
aS'Mamu-A1:01104'
p4592
aS'Mamu-A1:01201'
p4593
aS'Mamu-A1:01601'
p4594
aS'Mamu-A1:01801'
p4595
aS'Mamu-A1:01802'
p4596
aS'Mamu-A1:01803'
p4597
aS'Mamu-A1:01804'
p4598
aS'Mamu-A1:01805'
p4599
aS'Mamu-A1:01806'
p4600
aS'Mamu-A1:01807'
p4601
aS'Mamu-A1:01808'
p4602
aS'Mamu-A1:01901'
p4603
aS'Mamu-A1:01902'
p4604
aS'Mamu-A1:01903'
p4605
aS'Mamu-A1:01904'
p4606
aS'Mamu-A1:01905'
p4607
aS'Mamu-A1:01906'
p4608
aS'Mamu-A1:01907'
p4609
aS'Mamu-A1:02201'
p4610
aS'Mamu-A1:02202'
p4611
aS'Mamu-A1:02203'
p4612
aS'Mamu-A1:02301'
p4613
aS'Mamu-A1:02302'
p4614
aS'Mamu-A1:02501'
p4615
aS'Mamu-A1:02502'
p4616
aS'Mamu-A1:02601'
p4617
aS'Mamu-A1:02602'
p4618
aS'Mamu-A1:02603'
p4619
aS'Mamu-A1:02801'
p4620
aS'Mamu-A1:02802'
p4621
aS'Mamu-A1:02803'
p4622
aS'Mamu-A1:02804'
p4623
aS'Mamu-A1:02805'
p4624
aS'Mamu-A1:02806'
p4625
aS'Mamu-A1:03201'
p4626
aS'Mamu-A1:03202'
p4627
aS'Mamu-A1:03203'
p4628
aS'Mamu-A1:03301'
p4629
aS'Mamu-A1:04001'
p4630
aS'Mamu-A1:04002'
p4631
aS'Mamu-A1:04003'
p4632
aS'Mamu-A1:04101'
p4633
aS'Mamu-A1:04102'
p4634
aS'Mamu-A1:04201'
p4635
aS'Mamu-A1:04301'
p4636
aS'Mamu-A1:04501'
p4637
aS'Mamu-A1:04801'
p4638
aS'Mamu-A1:04901'
p4639
aS'Mamu-A1:04902'
p4640
aS'Mamu-A1:04903'
p4641
aS'Mamu-A1:04904'
p4642
aS'Mamu-A1:05001'
p4643
aS'Mamu-A1:05101'
p4644
aS'Mamu-A1:05201'
p4645
aS'Mamu-A1:05301'
p4646
aS'Mamu-A1:05302'
p4647
aS'Mamu-A1:05401'
p4648
aS'Mamu-A1:05402'
p4649
aS'Mamu-A1:05501'
p4650
aS'Mamu-A1:05601'
p4651
aS'Mamu-A1:05602'
p4652
aS'Mamu-A1:05603'
p4653
aS'Mamu-A1:05701'
p4654
aS'Mamu-A1:05702'
p4655
aS'Mamu-A1:05901'
p4656
aS'Mamu-A1:06001'
p4657
aS'Mamu-A1:06101'
p4658
aS'Mamu-A1:06301'
p4659
aS'Mamu-A1:06501'
p4660
aS'Mamu-A1:06601'
p4661
aS'Mamu-A1:07301'
p4662
aS'Mamu-A1:07401'
p4663
aS'Mamu-A1:07402'
p4664
aS'Mamu-A1:07403'
p4665
aS'Mamu-A1:08101'
p4666
aS'Mamu-A1:08501'
p4667
aS'Mamu-A1:09101'
p4668
aS'Mamu-A1:09201'
p4669
aS'Mamu-A1:10501'
p4670
aS'Mamu-A1:10502'
p4671
aS'Mamu-A1:10503'
p4672
aS'Mamu-A1:10504'
p4673
aS'Mamu-A1:10601'
p4674
aS'Mamu-A1:10701'
p4675
aS'Mamu-A1:10801'
p4676
aS'Mamu-A1:10901'
p4677
aS'Mamu-A1:11001'
p4678
aS'Mamu-A1:11101'
p4679
aS'Mamu-A1:11201'
p4680
aS'Mamu-A1:11301'
p4681
aS'Mamu-A2:0101'
p4682
aS'Mamu-A2:0102'
p4683
aS'Mamu-A2:0103'
p4684
aS'Mamu-A2:0501'
p4685
aS'Mamu-A2:05020'
p4686
aS'Mamu-A2:05030'
p4687
aS'Mamu-A2:05040'
p4688
aS'Mamu-A2:0505'
p4689
aS'Mamu-A2:0506'
p4690
aS'Mamu-A2:0507'
p4691
aS'Mamu-A2:0509'
p4692
aS'Mamu-A2:0510'
p4693
aS'Mamu-A2:0511'
p4694
aS'Mamu-A2:0512'
p4695
aS'Mamu-A2:0513'
p4696
aS'Mamu-A2:0514'
p4697
aS'Mamu-A2:05150'
p4698
aS'Mamu-A2:05160'
p4699
aS'Mamu-A2:0517'
p4700
aS'Mamu-A2:0518'
p4701
aS'Mamu-A2:0519'
p4702
aS'Mamu-A2:0520'
p4703
aS'Mamu-A2:0521'
p4704
aS'Mamu-A2:0522'
p4705
aS'Mamu-A2:0523'
p4706
aS'Mamu-A2:0524'
p4707
aS'Mamu-A2:0525'
p4708
aS'Mamu-A2:0526'
p4709
aS'Mamu-A2:0527'
p4710
aS'Mamu-A2:0528'
p4711
aS'Mamu-A2:0529'
p4712
aS'Mamu-A2:0531'
p4713
aS'Mamu-A2:05320'
p4714
aS'Mamu-A2:0533'
p4715
aS'Mamu-A2:0534'
p4716
aS'Mamu-A2:0535'
p4717
aS'Mamu-A2:0536'
p4718
aS'Mamu-A2:0537'
p4719
aS'Mamu-A2:0538'
p4720
aS'Mamu-A2:0539'
p4721
aS'Mamu-A2:0540'
p4722
aS'Mamu-A2:0541'
p4723
aS'Mamu-A2:0542'
p4724
aS'Mamu-A2:0543'
p4725
aS'Mamu-A2:0544'
p4726
aS'Mamu-A2:0545'
p4727
aS'Mamu-A2:0546'
p4728
aS'Mamu-A2:0547'
p4729
aS'Mamu-A2:2401'
p4730
aS'Mamu-A2:2402'
p4731
aS'Mamu-A2:2403'
p4732
aS'Mamu-A3:1301'
p4733
aS'Mamu-A3:1302'
p4734
aS'Mamu-A3:1303'
p4735
aS'Mamu-A3:1304'
p4736
aS'Mamu-A3:1305'
p4737
aS'Mamu-A3:1306'
p4738
aS'Mamu-A3:1307'
p4739
aS'Mamu-A3:1308'
p4740
aS'Mamu-A3:1309'
p4741
aS'Mamu-A3:1310'
p4742
aS'Mamu-A3:1311'
p4743
aS'Mamu-A3:1312'
p4744
aS'Mamu-A3:1313'
p4745
aS'Mamu-A4:0101'
p4746
aS'Mamu-A4:01020'
p4747
aS'Mamu-A4:0103'
p4748
aS'Mamu-A4:0202'
p4749
aS'Mamu-A4:0203'
p4750
aS'Mamu-A4:0205'
p4751
aS'Mamu-A4:0301'
p4752
aS'Mamu-A4:0302'
p4753
aS'Mamu-A4:1402'
p4754
aS'Mamu-A4:14030'
p4755
aS'Mamu-A4:1404'
p4756
aS'Mamu-A4:1405'
p4757
aS'Mamu-A4:1406'
p4758
aS'Mamu-A4:1407'
p4759
aS'Mamu-A4:1408'
p4760
aS'Mamu-A4:1409'
p4761
aS'Mamu-A5:30010'
p4762
aS'Mamu-A5:3002'
p4763
aS'Mamu-A5:3003'
p4764
aS'Mamu-A5:3004'
p4765
aS'Mamu-A5:3005'
p4766
aS'Mamu-A5:3006'
p4767
aS'Mamu-A6:0101'
p4768
aS'Mamu-A6:0102'
p4769
aS'Mamu-A6:0103'
p4770
aS'Mamu-A6:0104'
p4771
aS'Mamu-A6:0105'
p4772
aS'Mamu-A7:0101'
p4773
aS'Mamu-A7:0102'
p4774
aS'Mamu-A7:0103'
p4775
aS'Mamu-A7:0201'
p4776
aS'Mamu-AG:01'
p4777
aS'Mamu-AG:02011'
p4778
aS'Mamu-AG:02012'
p4779
aS'Mamu-AG:0202'
p4780
aS'Mamu-AG:03011'
p4781
aS'Mamu-AG:0302'
p4782
aS'Mamu-B:00101'
p4783
aS'Mamu-B:00102'
p4784
aS'Mamu-B:00201'
p4785
aS'Mamu-B:00202'
p4786
aS'Mamu-B:00301'
p4787
aS'Mamu-B:00302'
p4788
aS'Mamu-B:00401'
p4789
aS'Mamu-B:00501'
p4790
aS'Mamu-B:00502'
p4791
aS'Mamu-B:00601'
p4792
aS'Mamu-B:00602'
p4793
aS'Mamu-B:00701'
p4794
aS'Mamu-B:00702'
p4795
aS'Mamu-B:00703'
p4796
aS'Mamu-B:00704'
p4797
aS'Mamu-B:00801'
p4798
aS'Mamu-B:01001'
p4799
aS'Mamu-B:01101'
p4800
aS'Mamu-B:01201'
p4801
aS'Mamu-B:01301'
p4802
aS'Mamu-B:01401'
p4803
aS'Mamu-B:01501'
p4804
aS'Mamu-B:01502'
p4805
aS'Mamu-B:01601'
p4806
aS'Mamu-B:01701'
p4807
aS'Mamu-B:01702'
p4808
aS'Mamu-B:01703'
p4809
aS'Mamu-B:01801'
p4810
aS'Mamu-B:01901'
p4811
aS'Mamu-B:01902'
p4812
aS'Mamu-B:01903'
p4813
aS'Mamu-B:02001'
p4814
aS'Mamu-B:02101'
p4815
aS'Mamu-B:02102'
p4816
aS'Mamu-B:02103'
p4817
aS'Mamu-B:02201'
p4818
aS'Mamu-B:02301'
p4819
aS'Mamu-B:02401'
p4820
aS'Mamu-B:02501'
p4821
aS'Mamu-B:02601'
p4822
aS'Mamu-B:02602'
p4823
aS'Mamu-B:02701'
p4824
aS'Mamu-B:02702'
p4825
aS'Mamu-B:02703'
p4826
aS'Mamu-B:02801'
p4827
aS'Mamu-B:02802'
p4828
aS'Mamu-B:02803'
p4829
aS'Mamu-B:02901'
p4830
aS'Mamu-B:02902'
p4831
aS'Mamu-B:03001'
p4832
aS'Mamu-B:03002'
p4833
aS'Mamu-B:03003'
p4834
aS'Mamu-B:03004'
p4835
aS'Mamu-B:03005'
p4836
aS'Mamu-B:03101'
p4837
aS'Mamu-B:03102'
p4838
aS'Mamu-B:03103'
p4839
aS'Mamu-B:03201'
p4840
aS'Mamu-B:03301'
p4841
aS'Mamu-B:03401'
p4842
aS'Mamu-B:03501'
p4843
aS'Mamu-B:03601'
p4844
aS'Mamu-B:03602'
p4845
aS'Mamu-B:03701'
p4846
aS'Mamu-B:03801'
p4847
aS'Mamu-B:03802'
p4848
aS'Mamu-B:03901'
p4849
aS'Mamu-B:04001'
p4850
aS'Mamu-B:04002'
p4851
aS'Mamu-B:04101'
p4852
aS'Mamu-B:04201'
p4853
aS'Mamu-B:04301'
p4854
aS'Mamu-B:04401'
p4855
aS'Mamu-B:04402'
p4856
aS'Mamu-B:04403'
p4857
aS'Mamu-B:04404'
p4858
aS'Mamu-B:04405'
p4859
aS'Mamu-B:04501'
p4860
aS'Mamu-B:04502'
p4861
aS'Mamu-B:04503'
p4862
aS'Mamu-B:04504'
p4863
aS'Mamu-B:04601'
p4864
aS'Mamu-B:04602'
p4865
aS'Mamu-B:04603'
p4866
aS'Mamu-B:04604'
p4867
aS'Mamu-B:04605'
p4868
aS'Mamu-B:04607'
p4869
aS'Mamu-B:04608'
p4870
aS'Mamu-B:04609'
p4871
aS'Mamu-B:04610'
p4872
aS'Mamu-B:04611'
p4873
aS'Mamu-B:04612'
p4874
aS'Mamu-B:04613'
p4875
aS'Mamu-B:04614'
p4876
aS'Mamu-B:04615'
p4877
aS'Mamu-B:04616'
p4878
aS'Mamu-B:04617'
p4879
aS'Mamu-B:04701'
p4880
aS'Mamu-B:04702'
p4881
aS'Mamu-B:04703'
p4882
aS'Mamu-B:04704'
p4883
aS'Mamu-B:04705'
p4884
aS'Mamu-B:04801'
p4885
aS'Mamu-B:04802'
p4886
aS'Mamu-B:04901'
p4887
aS'Mamu-B:05002'
p4888
aS'Mamu-B:05101'
p4889
aS'Mamu-B:05102'
p4890
aS'Mamu-B:05103'
p4891
aS'Mamu-B:05104'
p4892
aS'Mamu-B:05105'
p4893
aS'Mamu-B:05201'
p4894
aS'Mamu-B:05301'
p4895
aS'Mamu-B:05302'
p4896
aS'Mamu-B:05401'
p4897
aS'Mamu-B:05501'
p4898
aS'Mamu-B:05601'
p4899
aS'Mamu-B:05602'
p4900
aS'Mamu-B:05701'
p4901
aS'Mamu-B:05702'
p4902
aS'Mamu-B:05802'
p4903
aS'Mamu-B:05901'
p4904
aS'Mamu-B:06001'
p4905
aS'Mamu-B:06002'
p4906
aS'Mamu-B:06003'
p4907
aS'Mamu-B:06101'
p4908
aS'Mamu-B:06102'
p4909
aS'Mamu-B:06103'
p4910
aS'Mamu-B:06301'
p4911
aS'Mamu-B:06302'
p4912
aS'Mamu-B:06401'
p4913
aS'Mamu-B:06402'
p4914
aS'Mamu-B:06501'
p4915
aS'Mamu-B:06502'
p4916
aS'Mamu-B:06503'
p4917
aS'Mamu-B:06601'
p4918
aS'Mamu-B:06701'
p4919
aS'Mamu-B:06702'
p4920
aS'Mamu-B:06801'
p4921
aS'Mamu-B:06802'
p4922
aS'Mamu-B:06803'
p4923
aS'Mamu-B:06804'
p4924
aS'Mamu-B:06805'
p4925
aS'Mamu-B:06901'
p4926
aS'Mamu-B:06902'
p4927
aS'Mamu-B:06903'
p4928
aS'Mamu-B:06904'
p4929
aS'Mamu-B:07001'
p4930
aS'Mamu-B:07002'
p4931
aS'Mamu-B:07101'
p4932
aS'Mamu-B:07201'
p4933
aS'Mamu-B:07202'
p4934
aS'Mamu-B:07301'
p4935
aS'Mamu-B:07401'
p4936
aS'Mamu-B:07402'
p4937
aS'Mamu-B:07501'
p4938
aS'Mamu-B:07502'
p4939
aS'Mamu-B:07601'
p4940
aS'Mamu-B:07602'
p4941
aS'Mamu-B:07701'
p4942
aS'Mamu-B:07702'
p4943
aS'Mamu-B:07801'
p4944
aS'Mamu-B:07901'
p4945
aS'Mamu-B:07902'
p4946
aS'Mamu-B:07903'
p4947
aS'Mamu-B:08001'
p4948
aS'Mamu-B:08101'
p4949
aS'Mamu-B:08102'
p4950
aS'Mamu-B:08201'
p4951
aS'Mamu-B:08202'
p4952
aS'Mamu-B:08301'
p4953
aS'Mamu-B:08401'
p4954
aS'Mamu-B:08501'
p4955
aS'Mamu-B:08502'
p4956
aS'Mamu-B:08601'
p4957
aS'Mamu-B:08602'
p4958
aS'Mamu-B:08603'
p4959
aS'Mamu-B:08701'
p4960
aS'Mamu-B:08801'
p4961
aS'Mamu-B:08901'
p4962
aS'Mamu-B:09001'
p4963
aS'Mamu-B:09101'
p4964
aS'Mamu-B:09102'
p4965
aS'Mamu-B:09201'
p4966
aS'Mamu-B:09301'
p4967
aS'Mamu-B:09401'
p4968
aS'Mamu-B:09501'
p4969
aS'Mamu-B:09601'
p4970
aS'Mamu-B:09701'
p4971
aS'Mamu-B:09801'
p4972
aS'Mamu-B:09901'
p4973
aS'Mamu-B:10001'
p4974
aS'Mamu-B:10101'
p4975
aS'Patr-A0101'
p4976
aS'Patr-A0201'
p4977
aS'Patr-A0301'
p4978
aS'Patr-A0302'
p4979
aS'Patr-A0401'
p4980
aS'Patr-A0402'
p4981
aS'Patr-A0404'
p4982
aS'Patr-A0501'
p4983
aS'Patr-A0601'
p4984
aS'Patr-A0602'
p4985
aS'Patr-A0701'
p4986
aS'Patr-A0801'
p4987
aS'Patr-A0802'
p4988
aS'Patr-A0803'
p4989
aS'Patr-A0901'
p4990
aS'Patr-A0902'
p4991
aS'Patr-A1001'
p4992
aS'Patr-A1101'
p4993
aS'Patr-A1201'
p4994
aS'Patr-A1301'
p4995
aS'Patr-A1401'
p4996
aS'Patr-A1501'
p4997
aS'Patr-A1502'
p4998
aS'Patr-A1601'
p4999
aS'Patr-A1701'
p5000
aS'Patr-A1702'
p5001
aS'Patr-A1703'
p5002
aS'Patr-A1801'
p5003
aS'Patr-A2301'
p5004
aS'Patr-A2401'
p5005
aS'Patr-B0101'
p5006
aS'Patr-B0102'
p5007
aS'Patr-B0201'
p5008
aS'Patr-B0203'
p5009
aS'Patr-B0301'
p5010
aS'Patr-B0302'
p5011
aS'Patr-B0401'
p5012
aS'Patr-B0402'
p5013
aS'Patr-B0501'
p5014
aS'Patr-B0502'
p5015
aS'Patr-B0601'
p5016
aS'Patr-B0701'
p5017
aS'Patr-B0702'
p5018
aS'Patr-B0801'
p5019
aS'Patr-B0802'
p5020
aS'Patr-B0901'
p5021
aS'Patr-B1001'
p5022
aS'Patr-B1101'
p5023
aS'Patr-B1102'
p5024
aS'Patr-B1202'
p5025
aS'Patr-B1301'
p5026
aS'Patr-B1401'
p5027
aS'Patr-B1601'
p5028
aS'Patr-B1602'
p5029
aS'Patr-B1701'
p5030
aS'Patr-B1702'
p5031
aS'Patr-B1703'
p5032
aS'Patr-B1801'
p5033
aS'Patr-B1901'
p5034
aS'Patr-B2001'
p5035
aS'Patr-B2101'
p5036
aS'Patr-B2201'
p5037
aS'Patr-B2202'
p5038
aS'Patr-B2301'
p5039
aS'Patr-B2302'
p5040
aS'Patr-B2303'
p5041
aS'Patr-B2401'
p5042
aS'Patr-B2402'
p5043
aS'Patr-B2501'
p5044
aS'Patr-B2601'
p5045
aS'Patr-B2701'
p5046
aS'Patr-B2801'
p5047
aS'Patr-B2901'
p5048
aS'Patr-B3001'
p5049
aS'Patr-B3501'
p5050
aS'Patr-B3601'
p5051
aS'Patr-B3701'
p5052
aS'Patr-C0201'
p5053
aS'Patr-C0202'
p5054
aS'Patr-C0203'
p5055
aS'Patr-C0204'
p5056
aS'Patr-C0205'
p5057
aS'Patr-C0206'
p5058
aS'Patr-C0301'
p5059
aS'Patr-C0302'
p5060
aS'Patr-C0303'
p5061
aS'Patr-C0304'
p5062
aS'Patr-C0401'
p5063
aS'Patr-C0501'
p5064
aS'Patr-C0502'
p5065
aS'Patr-C0601'
p5066
aS'Patr-C0701'
p5067
aS'Patr-C0801'
p5068
aS'Patr-C0901'
p5069
aS'Patr-C0902'
p5070
aS'Patr-C0903'
p5071
aS'Patr-C0904'
p5072
aS'Patr-C0905'
p5073
aS'Patr-C1001'
p5074
aS'Patr-C1101'
p5075
aS'Patr-C1201'
p5076
aS'Patr-C1301'
p5077
aS'Patr-C1302'
p5078
aS'Patr-C1501'
p5079
aS'Patr-C1601'
p5080
aS'SLA-1:0101'
p5081
aS'SLA-1:0201'
p5082
aS'SLA-1:0202'
p5083
aS'SLA-1:0401'
p5084
aS'SLA-1:0501'
p5085
aS'SLA-1:0601'
p5086
aS'SLA-1:0701'
p5087
aS'SLA-1:0702'
p5088
aS'SLA-1:0801'
p5089
aS'SLA-1:1101'
p5090
aS'SLA-1:1201'
p5091
aS'SLA-1:1301'
p5092
aS'SLA-2:0101'
p5093
aS'SLA-2:0102'
p5094
aS'SLA-2:0201'
p5095
aS'SLA-2:0202'
p5096
aS'SLA-2:0301'
p5097
aS'SLA-2:0302'
p5098
aS'SLA-2:0401'
p5099
aS'SLA-2:0402'
p5100
aS'SLA-2:0501'
p5101
aS'SLA-2:0502'
p5102
aS'SLA-2:0601'
p5103
aS'SLA-2:0701'
p5104
aS'SLA-2:1001'
p5105
aS'SLA-2:1002'
p5106
aS'SLA-2:1101'
p5107
aS'SLA-2:1201'
p5108
aS'SLA-3:0101'
p5109
aS'SLA-3:0301'
p5110
aS'SLA-3:0302'
p5111
aS'SLA-3:0303'
p5112
aS'SLA-3:0304'
p5113
aS'SLA-3:0401'
p5114
aS'SLA-3:0501'
p5115
aS'SLA-3:0502'
p5116
aS'SLA-3:0503'
p5117
aS'SLA-3:0601'
p5118
aS'SLA-3:0602'
p5119
aS'SLA-3:0701'
p5120
aS'SLA-6:0101'
p5121
aS'SLA-6:0102'
p5122
aS'SLA-6:0103'
p5123
aS'SLA-6:0104'
p5124
aS'SLA-6:0105'
p5125
aS'SLA-1-CHANGDA'
p5126
aS'SLA-1-HB01'
p5127
aS'SLA-1-HB02'
p5128
aS'SLA-1-HB03'
p5129
aS'SLA-1-HB04'
p5130
aS'SLA-1-LWH'
p5131
aS'SLA-1-TPK'
p5132
aS'SLA-1-YC'
p5133
aS'SLA-1-YDL01'
p5134
aS'SLA-1-YTH'
p5135
aS'SLA-1:es11'
p5136
aS'SLA-2-YDL02'
p5137
aS'SLA-2:CDY.AA'
p5138
aS'SLA-2:HB01'
p5139
aS'SLA-2:LWH.AA'
p5140
aS'SLA-2:TPK.AA'
p5141
aS'SLA-2:YC.AA'
p5142
aS'SLA-2:YDL.AA'
p5143
aS'SLA-2:YDY.AA'
p5144
aS'SLA-2:YTH.AA'
p5145
aS'SLA-2:es22'
p5146
aS'SLA-3-CDY'
p5147
aS'SLA-3-HB01'
p5148
aS'SLA-3-LWH'
p5149
aS'SLA-3-TPK'
p5150
aS'SLA-3-YC'
p5151
aS'SLA-3-YDL'
p5152
aS'SLA-3-YDY01'
p5153
aS'SLA-3-YDY02'
p5154
aS'SLA-3-YTH'
p5155
aS'H-2-Db'
p5156
aS'H-2-Dd'
p5157
aS'H-2-Kb'
p5158
aS'H-2-Kd'
p5159
aS'H-2-Kk'
p5160
aS'H-2-Ld'
p5161
aS'H-2-Qa2'
p5162
aS'H-2-Qa1'
p5163
aS'Gogo-B0101'
p5164
aS'HLA-G01:01'
p5165
aS'HLA-G01:02'
p5166
aS'HLA-G01:03'
p5167
aS'HLA-G01:04'
p5168
aS'HLA-G01:06'
p5169
aS'HLA-G01:07'
p5170
aS'HLA-G01:08'
p5171
aS'HLA-G01:09'
p5172
aS'HLA-E01:01'
p5173
aS'BoLA-N:00101'
p5174
aS'BoLA-N:00102'
p5175
aS'BoLA-N:00103'
p5176
aS'BoLA-N:00201'
p5177
aS'BoLA-N:00301'
p5178
aS'BoLA-N:00401'
p5179
aS'BoLA-N:00402'
p5180
aS'BoLA-N:00501'
p5181
aS'BoLA-N:00601'
p5182
aS'BoLA-N:00602'
p5183
aS'BoLA-N:00801'
p5184
aS'BoLA-N:00802'
p5185
aS'BoLA-N:00901'
p5186
aS'BoLA-N:00902'
p5187
aS'BoLA-N:01001'
p5188
aS'BoLA-N:01101'
p5189
aS'BoLA-N:01201'
p5190
aS'BoLA-N:01301'
p5191
aS'BoLA-N:01302'
p5192
aS'BoLA-N:01401'
p5193
aS'BoLA-N:01402'
p5194
aS'BoLA-N:01501'
p5195
aS'BoLA-N:01502'
p5196
aS'BoLA-N:01601'
p5197
aS'BoLA-N:01602'
p5198
aS'BoLA-N:01701'
p5199
aS'BoLA-N:01702'
p5200
aS'BoLA-N:01801'
p5201
aS'BoLA-N:01802'
p5202
aS'BoLA-N:01901'
p5203
aS'BoLA-N:02001'
p5204
aS'BoLA-N:02101'
p5205
aS'BoLA-N:02201'
p5206
aS'BoLA-N:02301'
p5207
aS'BoLA-N:02401'
p5208
aS'BoLA-N:02402'
p5209
aS'BoLA-N:02501'
p5210
aS'BoLA-N:02601'
p5211
aS'BoLA-N:02602'
p5212
aS'BoLA-N:02701'
p5213
aS'BoLA-N:02702'
p5214
aS'BoLA-N:02801'
p5215
aS'BoLA-N:02901'
p5216
aS'BoLA-N:03001'
p5217
aS'BoLA-N:03101'
p5218
aS'BoLA-N:03401'
p5219
aS'BoLA-N:03501'
p5220
aS'BoLA-N:03601'
p5221
aS'BoLA-N:03701'
p5222
aS'BoLA-N:03801'
p5223
aS'BoLA-N:03901'
p5224
aS'BoLA-N:04001'
p5225
aS'BoLA-N:04101'
p5226
aS'BoLA-N:04201'
p5227
aS'BoLA-N:04301'
p5228
aS'BoLA-N:04401'
p5229
aS'BoLA-N:04501'
p5230
aS'BoLA-N:04601'
p5231
aS'BoLA-N:04701'
p5232
aS'BoLA-N:04801'
p5233
aS'BoLA-N:04901'
p5234
aS'BoLA-N:05001'
p5235
aS'BoLA-N:05101'
p5236
aS'BoLA-N:05201'
p5237
aS'BoLA-N:05301'
p5238
aS'BoLA-N:05401'
p5239
aS'BoLA-N:05501'
p5240
aS'BoLA-N:05601'
p5241
aS'BoLA-NC1:00101'
p5242
aS'BoLA-NC1:00201'
p5243
aS'BoLA-NC1:00301'
p5244
aS'BoLA-NC1:00401'
p5245
aS'BoLA-NC2:00101'
p5246
aS'BoLA-NC2:00102'
p5247
aS'BoLA-NC3:00101'
p5248
aS'BoLA-NC4:00101'
p5249
aS'BoLA-NC4:00201'
p5250
aS'BoLA-HD6'
p5251
aS'BoLA-JSP.1'
p5252
aS'BoLA-T2c'
p5253
aS'BoLA-T2b'
p5254
aS'BoLA-T2a'
p5255
aS'BoLA-T7'
p5256
aS'BoLA-D18.4'
p5257
aS'BoLA-AW10'
p5258
aS'BoLA-T5'
p5259
aS'BoLA-1:00901'
p5260
aS'BoLA-1:00902'
p5261
aS'BoLA-1:01901'
p5262
aS'BoLA-1:02001'
p5263
aS'BoLA-1:02101'
p5264
aS'BoLA-1:02301'
p5265
aS'BoLA-1:02801'
p5266
aS'BoLA-1:02901'
p5267
aS'BoLA-1:03101'
p5268
aS'BoLA-1:03102'
p5269
aS'BoLA-1:04201'
p5270
aS'BoLA-1:04901'
p5271
aS'BoLA-1:06101'
p5272
aS'BoLA-1:06701'
p5273
aS'BoLA-1:07401'
p5274
aS'BoLA-2:00501'
p5275
aS'BoLA-2:00601'
p5276
aS'BoLA-2:00602'
p5277
aS'BoLA-2:00801'
p5278
aS'BoLA-2:00802'
p5279
aS'BoLA-2:01201'
p5280
aS'BoLA-2:01601'
p5281
aS'BoLA-2:01602'
p5282
aS'BoLA-2:01801'
p5283
aS'BoLA-2:01802'
p5284
aS'BoLA-2:02201'
p5285
aS'BoLA-2:02501'
p5286
aS'BoLA-2:02601'
p5287
aS'BoLA-2:02602'
p5288
aS'BoLA-2:02603'
p5289
aS'BoLA-2:03001'
p5290
aS'BoLA-2:03202'
p5291
aS'BoLA-2:04301'
p5292
aS'BoLA-2:04401'
p5293
aS'BoLA-2:04402'
p5294
aS'BoLA-2:04501'
p5295
aS'BoLA-2:04601'
p5296
aS'BoLA-2:04701'
p5297
aS'BoLA-2:04801'
p5298
aS'BoLA-2:05401'
p5299
aS'BoLA-2:05501'
p5300
aS'BoLA-2:05601'
p5301
aS'BoLA-2:05701'
p5302
aS'BoLA-2:06001'
p5303
aS'BoLA-2:06201'
p5304
aS'BoLA-2:06901'
p5305
aS'BoLA-2:07001'
p5306
aS'BoLA-2:07101'
p5307
aS'BoLA-3:00101'
p5308
aS'BoLA-3:00102'
p5309
aS'BoLA-3:00103'
p5310
aS'BoLA-3:00201'
p5311
aS'BoLA-3:00401'
p5312
aS'BoLA-3:00402'
p5313
aS'BoLA-3:00403'
p5314
aS'BoLA-3:01001'
p5315
aS'BoLA-3:01101'
p5316
aS'BoLA-3:01701'
p5317
aS'BoLA-3:01702'
p5318
aS'BoLA-3:01703'
p5319
aS'BoLA-3:02701'
p5320
aS'BoLA-3:02702'
p5321
aS'BoLA-3:03501'
p5322
aS'BoLA-3:03601'
p5323
aS'BoLA-3:03701'
p5324
aS'BoLA-3:03801'
p5325
aS'BoLA-3:05001'
p5326
aS'BoLA-3:05002'
p5327
aS'BoLA-3:05101'
p5328
aS'BoLA-3:05201'
p5329
aS'BoLA-3:05301'
p5330
aS'BoLA-3:05801'
p5331
aS'BoLA-3:05901'
p5332
aS'BoLA-3:06501'
p5333
aS'BoLA-3:06601'
p5334
aS'BoLA-3:06602'
p5335
aS'BoLA-3:06801'
p5336
aS'BoLA-3:07301'
p5337
aS'BoLA-4:02401'
p5338
aS'BoLA-4:02402'
p5339
aS'BoLA-4:06301'
p5340
aS'BoLA-5:00301'
p5341
aS'BoLA-5:03901'
p5342
aS'BoLA-5:06401'
p5343
aS'BoLA-5:07201'
p5344
aS'BoLA-6:01301'
p5345
aS'BoLA-6:01302'
p5346
aS'BoLA-6:01401'
p5347
aS'BoLA-6:01402'
p5348
aS'BoLA-6:01501'
p5349
aS'BoLA-6:01502'
p5350
aS'BoLA-6:03401'
p5351
aS'BoLA-6:04001'
p5352
aS'BoLA-6:04101'
p5353
as.