(dp0
S'HLA-C1502'
p1
c__builtin__
set
p2
((lp3
I9
atp4
Rp5
sS'HLA-B4408'
p6
g2
((lp7
I9
atp8
Rp9
sS'HLA-B4403'
p10
g2
((lp11
I8
aI9
aI10
aI11
atp12
Rp13
sS'HLA-A3501'
p14
g2
((lp15
I9
atp16
Rp17
sS'HLA-B5103'
p18
g2
((lp19
I9
atp20
Rp21
sS'HLA-C0501'
p22
g2
((lp23
I9
atp24
Rp25
sS'HLA-A2402'
p26
g2
((lp27
I8
aI9
aI10
aI11
atp28
Rp29
sS'HLA-A2403'
p30
g2
((lp31
I9
atp32
Rp33
sS'HLA-B5101'
p34
g2
((lp35
I8
aI9
aI10
atp36
Rp37
sS'HLA-B4001'
p38
g2
((lp39
I9
aI10
atp40
Rp41
sS'HLA-B4002'
p42
g2
((lp43
I8
aI9
aI10
aI11
aI12
aI13
atp44
Rp45
sS'HLA-A6601'
p46
g2
((lp47
I9
atp48
Rp49
sS'HLA-C1601'
p50
g2
((lp51
I8
aI9
aI10
aI11
atp52
Rp53
sS'HLA-B5802'
p54
g2
((lp55
I9
atp56
Rp57
sS'HLA-B3701'
p58
g2
((lp59
I9
atp60
Rp61
sS'HLA-B5801'
p62
g2
((lp63
I9
aI10
aI11
atp64
Rp65
sS'HLA-B5701'
p66
g2
((lp67
I8
aI9
aI10
aI11
aI12
atp68
Rp69
sS'HLA-B5703'
p70
g2
((lp71
I9
atp72
Rp73
sS'HLA-B5702'
p74
g2
((lp75
I9
atp76
Rp77
sS'HLA-B4701'
p78
g2
((lp79
I9
atp80
Rp81
sS'HLA-B8301'
p82
g2
((lp83
I9
atp84
Rp85
sS'HLA-B4402'
p86
g2
((lp87
I9
aI10
aI11
aI12
atp88
Rp89
sS'HLA-A3201'
p90
g2
((lp91
I9
aI10
atp92
Rp93
sS'HLA-A3207'
p94
g2
((lp95
I9
atp96
Rp97
sS'HLA-A2602'
p98
g2
((lp99
I9
atp100
Rp101
sS'HLA-A2603'
p102
g2
((lp103
I9
atp104
Rp105
sS'HLA-A2601'
p106
g2
((lp107
I9
aI10
aI11
atp108
Rp109
sS'HLA-A0301'
p110
g2
((lp111
I8
aI9
aI10
aI11
atp112
Rp113
sS'HLA-A0302'
p114
g2
((lp115
I9
atp116
Rp117
sS'HLA-B1503'
p118
g2
((lp119
I9
atp120
Rp121
sS'HLA-B1502'
p122
g2
((lp123
I8
aI9
aI10
atp124
Rp125
sS'HLA-B1501'
p126
g2
((lp127
I8
aI9
aI10
aI11
atp128
Rp129
sS'HLA-B4013'
p130
g2
((lp131
I9
atp132
Rp133
sS'HLA-B1509'
p134
g2
((lp135
I9
atp136
Rp137
sS'HLA-B2720'
p138
g2
((lp139
I9
atp140
Rp141
sS'HLA-C0602'
p142
g2
((lp143
I9
atp144
Rp145
sS'HLA-B4427'
p146
g2
((lp147
I9
aI10
aI11
aI12
atp148
Rp149
sS'HLA-C1402'
p150
g2
((lp151
I9
atp152
Rp153
sS'HLA-B4202'
p154
g2
((lp155
I9
atp156
Rp157
sS'HLA-E0103'
p158
g2
((lp159
I9
atp160
Rp161
sS'HLA-E0101'
p162
g2
((lp163
I9
atp164
Rp165
sS'HLA-B4201'
p166
g2
((lp167
I9
aI10
atp168
Rp169
sS'HLA-A2501'
p170
g2
((lp171
I9
atp172
Rp173
sS'HLA-A6823'
p174
g2
((lp175
I9
atp176
Rp177
sS'HLA-A0319'
p178
g2
((lp179
I9
atp180
Rp181
sS'HLA-B3801'
p182
g2
((lp183
I9
atp184
Rp185
sS'HLA-B1516'
p186
g2
((lp187
I9
atp188
Rp189
sS'HLA-B1517'
p190
g2
((lp191
I9
aI11
atp192
Rp193
sS'HLA-B1510'
p194
g2
((lp195
I9
atp196
Rp197
sS'HLA-A0250'
p198
g2
((lp199
I9
atp200
Rp201
sS'HLA-A5101'
p202
g2
((lp203
I9
atp204
Rp205
sS'HLA-C0304'
p206
g2
((lp207
I9
atp208
Rp209
sS'HLA-C0303'
p210
g2
((lp211
I9
atp212
Rp213
sS'HLA-B5001'
p214
g2
((lp215
I8
aI9
aI10
aI11
atp216
Rp217
sS'HLA-A2301'
p218
g2
((lp219
I9
aI10
atp220
Rp221
sS'HLA-B4601'
p222
g2
((lp223
I9
atp224
Rp225
sS'HLA-A2902'
p226
g2
((lp227
I8
aI9
aI10
aI11
atp228
Rp229
sS'HLA-B2704'
p230
g2
((lp231
I9
atp232
Rp233
sS'HLA-B2705'
p234
g2
((lp235
I8
aI9
aI10
aI11
aI12
atp236
Rp237
sS'HLA-B2706'
p238
g2
((lp239
I9
atp240
Rp241
sS'HLA-B2707'
p242
g2
((lp243
I9
atp244
Rp245
sS'HLA-B2701'
p246
g2
((lp247
I9
atp248
Rp249
sS'HLA-B2702'
p250
g2
((lp251
I9
atp252
Rp253
sS'HLA-B2703'
p254
g2
((lp255
I9
atp256
Rp257
sS'HLA-B2709'
p258
g2
((lp259
I9
atp260
Rp261
sS'HLA-A3101'
p262
g2
((lp263
I9
aI10
aI11
atp264
Rp265
sS'HLA-B0702'
p266
g2
((lp267
I8
aI9
aI10
aI11
atp268
Rp269
sS'HLA-C0702'
p270
g2
((lp271
I9
atp272
Rp273
sS'HLA-C0701'
p274
g2
((lp275
I9
atp276
Rp277
sS'HLA-B0801'
p278
g2
((lp279
I8
aI9
aI10
atp280
Rp281
sS'HLA-B0803'
p282
g2
((lp283
I9
atp284
Rp285
sS'HLA-B0802'
p286
g2
((lp287
I9
atp288
Rp289
sS'HLA-A3301'
p290
g2
((lp291
I9
aI10
atp292
Rp293
sS'HLA-A6801'
p294
g2
((lp295
I9
aI10
aI11
atp296
Rp297
sS'HLA-A6802'
p298
g2
((lp299
I9
aI10
atp300
Rp301
sS'HLA-B3901'
p302
g2
((lp303
I8
aI9
atp304
Rp305
sS'HLA-A0101'
p306
g2
((lp307
I9
aI10
aI11
atp308
Rp309
sS'HLA-B5201'
p310
g2
((lp311
I9
atp312
Rp313
sS'HLA-B1402'
p314
g2
((lp315
I9
atp316
Rp317
sS'HLA-B1403'
p318
g2
((lp319
I9
atp320
Rp321
sS'HLA-B1401'
p322
g2
((lp323
I9
atp324
Rp325
sS'HLA-B3508'
p326
g2
((lp327
I8
aI10
aI11
aI12
aI13
atp328
Rp329
sS'HLA-A3001'
p330
g2
((lp331
I9
aI10
atp332
Rp333
sS'HLA-B3501'
p334
g2
((lp335
I8
aI9
aI10
aI11
atp336
Rp337
sS'HLA-B5102'
p338
g2
((lp339
I9
atp340
Rp341
sS'HLA-B3503'
p342
g2
((lp343
I9
atp344
Rp345
sS'HLA-B3502'
p346
g2
((lp347
I9
atp348
Rp349
sS'HLA-B8101'
p350
g2
((lp351
I9
atp352
Rp353
sS'HLA-A0216'
p354
g2
((lp355
I9
atp356
Rp357
sS'HLA-A0203'
p358
g2
((lp359
I8
aI9
aI10
aI11
atp360
Rp361
sS'HLA-C0801'
p362
g2
((lp363
I9
atp364
Rp365
sS'HLA-C0802'
p366
g2
((lp367
I9
atp368
Rp369
sS'HLA-B4501'
p370
g2
((lp371
I9
aI10
atp372
Rp373
sS'HLA-B5401'
p374
g2
((lp375
I9
aI10
atp376
Rp377
sS'HLA-C0401'
p378
g2
((lp379
I8
aI9
aI10
atp380
Rp381
sS'HLA-B1801'
p382
g2
((lp383
I8
aI9
aI10
aI11
atp384
Rp385
sS'HLA-A6901'
p386
g2
((lp387
I9
atp388
Rp389
sS'HLA-A0212'
p390
g2
((lp391
I9
atp392
Rp393
sS'HLA-A0211'
p394
g2
((lp395
I9
atp396
Rp397
sS'HLA-B4103'
p398
g2
((lp399
I9
aI10
atp400
Rp401
sS'HLA-B4104'
p402
g2
((lp403
I8
aI9
aI11
atp404
Rp405
sS'HLA-A1101'
p406
g2
((lp407
I9
aI10
aI11
atp408
Rp409
sS'HLA-A1102'
p410
g2
((lp411
I9
atp412
Rp413
sS'HLA-A0219'
p414
g2
((lp415
I9
atp416
Rp417
sS'HLA-B4901'
p418
g2
((lp419
I8
aI9
aI10
atp420
Rp421
sS'HLA-B4801'
p422
g2
((lp423
I9
atp424
Rp425
sS'HLA-B4101'
p426
g2
((lp427
I9
atp428
Rp429
sS'HLA-B4102'
p430
g2
((lp431
I9
atp432
Rp433
sS'HLA-B5301'
p434
g2
((lp435
I9
aI10
atp436
Rp437
sS'HLA-A0217'
p438
g2
((lp439
I9
aI10
atp440
Rp441
sS'HLA-C1203'
p442
g2
((lp443
I9
atp444
Rp445
sS'HLA-A3303'
p446
g2
((lp447
I9
atp448
Rp449
sS'HLA-B4105'
p450
g2
((lp451
I9
aI11
atp452
Rp453
sS'HLA-A0204'
p454
g2
((lp455
I9
atp456
Rp457
sS'HLA-A0205'
p458
g2
((lp459
I8
aI9
aI10
aI11
atp460
Rp461
sS'HLA-A0206'
p462
g2
((lp463
I9
aI10
aI11
atp464
Rp465
sS'HLA-A0207'
p466
g2
((lp467
I9
aI10
atp468
Rp469
sS'HLA-A0201'
p470
g2
((lp471
I8
aI9
aI10
aI11
aI12
aI13
aI14
aI15
aI16
aI17
aI19
aI20
aI25
atp472
Rp473
sS'HLA-A0202'
p474
g2
((lp475
I8
aI9
aI10
aI11
atp476
Rp477
sS'HLA-A3002'
p478
g2
((lp479
I9
aI10
aI11
atp480
Rp481
sS'HLA-A3215'
p482
g2
((lp483
I9
atp484
Rp485
sS'HLA-A8001'
p486
g2
((lp487
I9
atp488
Rp489
sS'HLA-B7301'
p490
g2
((lp491
I9
atp492
Rp493
s.